

Microchip MPLAB XC8 Assembler V2.32 build 20210201212658 
                                                                                               Sat May 29 22:32:50 2021

Microchip MPLAB XC8 C Compiler v2.32 (Free license) build 20210201212658 Og1 
     1                           	processor	16F877A
     2                           	pagewidth 120
     3                           	opt	flic
     4                           	psect	strings,global,class=STRING,delta=2,noexec
     5                           	psect	cinit,global,class=CODE,merge=1,delta=2
     6                           	psect	bssBANK0,global,class=BANK0,space=1,delta=1,noexec
     7                           	psect	bssBANK1,global,class=BANK1,space=1,delta=1,noexec
     8                           	psect	cstackCOMMON,global,class=COMMON,space=1,delta=1,noexec
     9                           	psect	cstackBANK0,global,class=BANK0,space=1,delta=1,noexec
    10                           	psect	maintext,global,class=CODE,split=1,delta=2
    11                           	psect	text1,local,class=CODE,merge=1,delta=2
    12                           	psect	text2,local,class=CODE,merge=1,delta=2
    13                           	psect	text3,local,class=CODE,merge=1,delta=2
    14                           	psect	text4,local,class=CODE,merge=1,delta=2
    15                           	psect	text5,local,class=CODE,merge=1,delta=2
    16                           	psect	text6,local,class=CODE,merge=1,delta=2
    17                           	psect	text7,local,class=CODE,merge=1,delta=2
    18                           	psect	text8,local,class=CODE,merge=1,delta=2,group=1
    19                           	psect	text9,local,class=CODE,merge=1,delta=2,group=1
    20                           	psect	text10,local,class=CODE,merge=1,delta=2,group=1
    21                           	psect	text11,local,class=CODE,merge=1,delta=2,group=1
    22                           	psect	text12,local,class=CODE,merge=1,delta=2,group=1
    23                           	psect	text13,local,class=CODE,merge=1,delta=2,group=1
    24                           	psect	text14,local,class=CODE,merge=1,delta=2,group=1
    25                           	psect	text15,local,class=CODE,merge=1,delta=2
    26                           	psect	text16,local,class=CODE,merge=1,delta=2
    27                           	psect	text17,local,class=CODE,merge=1,delta=2
    28                           	psect	text18,local,class=CODE,merge=1,delta=2
    29                           	psect	config,global,abs,ovrld,class=CONFIG,space=4,delta=2,noexec
    30                           	dabs	1,0x7E,2
    31  0000                     
    32                           ; Version 2.20
    33                           ; Generated 12/02/2020 GMT
    34                           ; 
    35                           ; Copyright © 2020, Microchip Technology Inc. and its subsidiaries ("Microchip")
    36                           ; All rights reserved.
    37                           ; 
    38                           ; This software is developed by Microchip Technology Inc. and its subsidiaries ("Microch
      +                          ip").
    39                           ; 
    40                           ; Redistribution and use in source and binary forms, with or without modification, are
    41                           ; permitted provided that the following conditions are met:
    42                           ; 
    43                           ;     1. Redistributions of source code must retain the above copyright notice, this lis
      +                          t of
    44                           ;        conditions and the following disclaimer.
    45                           ; 
    46                           ;     2. Redistributions in binary form must reproduce the above copyright notice, this 
      +                          list
    47                           ;        of conditions and the following disclaimer in the documentation and/or other
    48                           ;        materials provided with the distribution.
    49                           ; 
    50                           ;     3. Microchip's name may not be used to endorse or promote products derived from th
      +                          is
    51                           ;        software without specific prior written permission.
    52                           ; 
    53                           ; THIS SOFTWARE IS PROVIDED BY MICROCHIP "AS IS" AND ANY EXPRESS OR IMPLIED WARRANTIES,
    54                           ; INCLUDING, BUT NOT LIMITED TO, THE IMPLIED WARRANTIES OF MERCHANTABILITY AND FITNESS F
      +                          OR
    55                           ; PURPOSE ARE DISCLAIMED.  IN NO EVENT SHALL MICROCHIP BE LIABLE FOR ANY DIRECT, INDIREC
      +                          T,
    56                           ; INCIDENTAL, SPECIAL, EXEMPLARY, OR CONSEQUENTIAL DAMAGES (INCLUDING BUT NOT LIMITED TO
    57                           ; PROCUREMENT OF SUBSTITUTE GOODS OR SERVICES; LOSS OF USE, DATA OR PROFITS; OR BUSINESS
    58                           ; INTERRUPTION) HOWSOEVER CAUSED AND ON ANY THEORY OF LIABILITY, WHETHER IN CONTRACT, ST
      +                          RICT
    59                           ; LIABILITY, OR TORT (INCLUDING NEGLIGENCE OR OTHERWISE) ARISING IN ANY WAY OUT OF THE U
      +                          SE OF
    60                           ; THIS SOFTWARE, EVEN IF ADVISED OF THE POSSIBILITY OF SUCH DAMAGE.
    61                           ; 
    62                           ; 
    63                           ; Code-generator required, PIC16F877A Definitions
    64                           ; 
    65                           ; SFR Addresses
    66  0000                     	;# 
    67  0001                     	;# 
    68  0002                     	;# 
    69  0003                     	;# 
    70  0004                     	;# 
    71  0005                     	;# 
    72  0006                     	;# 
    73  0007                     	;# 
    74  0008                     	;# 
    75  0009                     	;# 
    76  000A                     	;# 
    77  000B                     	;# 
    78  000C                     	;# 
    79  000D                     	;# 
    80  000E                     	;# 
    81  000E                     	;# 
    82  000F                     	;# 
    83  0010                     	;# 
    84  0011                     	;# 
    85  0012                     	;# 
    86  0013                     	;# 
    87  0014                     	;# 
    88  0015                     	;# 
    89  0015                     	;# 
    90  0016                     	;# 
    91  0017                     	;# 
    92  0018                     	;# 
    93  0019                     	;# 
    94  001A                     	;# 
    95  001B                     	;# 
    96  001B                     	;# 
    97  001C                     	;# 
    98  001D                     	;# 
    99  001E                     	;# 
   100  001F                     	;# 
   101  0081                     	;# 
   102  0085                     	;# 
   103  0086                     	;# 
   104  0087                     	;# 
   105  0088                     	;# 
   106  0089                     	;# 
   107  008C                     	;# 
   108  008D                     	;# 
   109  008E                     	;# 
   110  0091                     	;# 
   111  0092                     	;# 
   112  0093                     	;# 
   113  0094                     	;# 
   114  0098                     	;# 
   115  0099                     	;# 
   116  009C                     	;# 
   117  009D                     	;# 
   118  009E                     	;# 
   119  009F                     	;# 
   120  010C                     	;# 
   121  010D                     	;# 
   122  010E                     	;# 
   123  010F                     	;# 
   124  018C                     	;# 
   125  018D                     	;# 
   126  0000                     	;# 
   127  0001                     	;# 
   128  0002                     	;# 
   129  0003                     	;# 
   130  0004                     	;# 
   131  0005                     	;# 
   132  0006                     	;# 
   133  0007                     	;# 
   134  0008                     	;# 
   135  0009                     	;# 
   136  000A                     	;# 
   137  000B                     	;# 
   138  000C                     	;# 
   139  000D                     	;# 
   140  000E                     	;# 
   141  000E                     	;# 
   142  000F                     	;# 
   143  0010                     	;# 
   144  0011                     	;# 
   145  0012                     	;# 
   146  0013                     	;# 
   147  0014                     	;# 
   148  0015                     	;# 
   149  0015                     	;# 
   150  0016                     	;# 
   151  0017                     	;# 
   152  0018                     	;# 
   153  0019                     	;# 
   154  001A                     	;# 
   155  001B                     	;# 
   156  001B                     	;# 
   157  001C                     	;# 
   158  001D                     	;# 
   159  001E                     	;# 
   160  001F                     	;# 
   161  0081                     	;# 
   162  0085                     	;# 
   163  0086                     	;# 
   164  0087                     	;# 
   165  0088                     	;# 
   166  0089                     	;# 
   167  008C                     	;# 
   168  008D                     	;# 
   169  008E                     	;# 
   170  0091                     	;# 
   171  0092                     	;# 
   172  0093                     	;# 
   173  0094                     	;# 
   174  0098                     	;# 
   175  0099                     	;# 
   176  009C                     	;# 
   177  009D                     	;# 
   178  009E                     	;# 
   179  009F                     	;# 
   180  010C                     	;# 
   181  010D                     	;# 
   182  010E                     	;# 
   183  010F                     	;# 
   184  018C                     	;# 
   185  018D                     	;# 
   186  0000                     	;# 
   187  0001                     	;# 
   188  0002                     	;# 
   189  0003                     	;# 
   190  0004                     	;# 
   191  0005                     	;# 
   192  0006                     	;# 
   193  0007                     	;# 
   194  0008                     	;# 
   195  0009                     	;# 
   196  000A                     	;# 
   197  000B                     	;# 
   198  000C                     	;# 
   199  000D                     	;# 
   200  000E                     	;# 
   201  000E                     	;# 
   202  000F                     	;# 
   203  0010                     	;# 
   204  0011                     	;# 
   205  0012                     	;# 
   206  0013                     	;# 
   207  0014                     	;# 
   208  0015                     	;# 
   209  0015                     	;# 
   210  0016                     	;# 
   211  0017                     	;# 
   212  0018                     	;# 
   213  0019                     	;# 
   214  001A                     	;# 
   215  001B                     	;# 
   216  001B                     	;# 
   217  001C                     	;# 
   218  001D                     	;# 
   219  001E                     	;# 
   220  001F                     	;# 
   221  0081                     	;# 
   222  0085                     	;# 
   223  0086                     	;# 
   224  0087                     	;# 
   225  0088                     	;# 
   226  0089                     	;# 
   227  008C                     	;# 
   228  008D                     	;# 
   229  008E                     	;# 
   230  0091                     	;# 
   231  0092                     	;# 
   232  0093                     	;# 
   233  0094                     	;# 
   234  0098                     	;# 
   235  0099                     	;# 
   236  009C                     	;# 
   237  009D                     	;# 
   238  009E                     	;# 
   239  009F                     	;# 
   240  010C                     	;# 
   241  010D                     	;# 
   242  010E                     	;# 
   243  010F                     	;# 
   244  018C                     	;# 
   245  018D                     	;# 
   246  0006                     _PORTB	set	6
   247  001E                     _ADRESH	set	30
   248  001F                     _ADCON0	set	31
   249  0008                     _PORTD	set	8
   250  00FA                     _GO_DONE	set	250
   251  0035                     _RB5	set	53
   252  0034                     _RB4	set	52
   253  0088                     _TRISD	set	136
   254  0086                     _TRISB	set	134
   255  009E                     _ADRESL	set	158
   256  009F                     _ADCON1	set	159
   257                           
   258                           	psect	strings
   259  0800                     __pstrings:
   260  0800                     stringtab:
   261  0800                     __stringtab:
   262  0800                     stringcode:	
   263                           ;	String table - string pointers are 1 byte each
   264                           
   265  0800                     stringdir:
   266  0800  3008               	movlw	high stringdir
   267  0801  008A               	movwf	10
   268  0802  0804               	movf	4,w
   269  0803  0A84               	incf	4,f
   270  0804  0782               	addwf	2,f
   271  0805                     __stringbase:
   272  0805  3400               	retlw	0
   273  0806                     __end_of__stringtab:
   274  0806                     STR_3:
   275  0806  3452               	retlw	82	;'R'
   276  0807  3441               	retlw	65	;'A'
   277  0808  3431               	retlw	49	;'1'
   278  0809  342D               	retlw	45	;'-'
   279  080A  343E               	retlw	62	;'>'
   280  080B  3474               	retlw	116	;'t'
   281  080C  3465               	retlw	101	;'e'
   282  080D  346D               	retlw	109	;'m'
   283  080E  3470               	retlw	112	;'p'
   284  080F  343A               	retlw	58	;':'
   285  0810  3400               	retlw	0
   286  0811                     STR_1:
   287  0811  3452               	retlw	82	;'R'
   288  0812  3441               	retlw	65	;'A'
   289  0813  3430               	retlw	48	;'0'
   290  0814  342D               	retlw	45	;'-'
   291  0815  343E               	retlw	62	;'>'
   292  0816  3456               	retlw	86	;'V'
   293  0817  346F               	retlw	111	;'o'
   294  0818  346C               	retlw	108	;'l'
   295  0819  3474               	retlw	116	;'t'
   296  081A  343A               	retlw	58	;':'
   297  081B  3400               	retlw	0
   298  081C                     STR_4:
   299  081C  3427               	retlw	39	;'''
   300  081D  3443               	retlw	67	;'C'
   301  081E  3400               	retlw	0
   302  081F                     STR_2:
   303  081F  3456               	retlw	86	;'V'
   304  0820  3400               	retlw	0
   305                           
   306                           	psect	cinit
   307  07EA                     start_initialization:	
   308                           ; #config settings
   309                           
   310  07EA                     __initialization:
   311                           
   312                           ; Clear objects allocated to BANK0
   313  07EA  1283               	bcf	3,5	;RP0=0, select bank0
   314  07EB  1303               	bcf	3,6	;RP1=0, select bank0
   315  07EC  01E6               	clrf	__pbssBANK0& (0+127)
   316  07ED  01E7               	clrf	(__pbssBANK0+1)& (0+127)
   317  07EE  01E8               	clrf	(__pbssBANK0+2)& (0+127)
   318  07EF  01E9               	clrf	(__pbssBANK0+3)& (0+127)
   319  07F0  01EA               	clrf	(__pbssBANK0+4)& (0+127)
   320  07F1  01EB               	clrf	(__pbssBANK0+5)& (0+127)
   321  07F2  01EC               	clrf	(__pbssBANK0+6)& (0+127)
   322  07F3  01ED               	clrf	(__pbssBANK0+7)& (0+127)
   323  07F4  01EE               	clrf	(__pbssBANK0+8)& (0+127)
   324  07F5  01EF               	clrf	(__pbssBANK0+9)& (0+127)
   325                           
   326                           ; Clear objects allocated to BANK1
   327  07F6  1683               	bsf	3,5	;RP0=1, select bank1
   328  07F7  1303               	bcf	3,6	;RP1=0, select bank1
   329  07F8  01A0               	clrf	__pbssBANK1& (0+127)
   330  07F9  01A1               	clrf	(__pbssBANK1+1)& (0+127)
   331  07FA  01A2               	clrf	(__pbssBANK1+2)& (0+127)
   332  07FB  01A3               	clrf	(__pbssBANK1+3)& (0+127)
   333  07FC                     end_of_initialization:	
   334                           ;End of C runtime variable initialization code
   335                           
   336  07FC                     __end_of__initialization:
   337  07FC  0183               	clrf	3
   338  07FD  120A  158A  2D9B   	ljmp	_main	;jump to C main() function
   339                           
   340                           	psect	bssBANK0
   341  0066                     __pbssBANK0:
   342  0066                     _val7:
   343  0066                     	ds	2
   344  0068                     _val6:
   345  0068                     	ds	2
   346  006A                     _val5:
   347  006A                     	ds	2
   348  006C                     _val3:
   349  006C                     	ds	2
   350  006E                     _adc_value:
   351  006E                     	ds	2
   352                           
   353                           	psect	bssBANK1
   354  00A0                     __pbssBANK1:
   355  00A0                     _val4:
   356  00A0                     	ds	2
   357  00A2                     _val2:
   358  00A2                     	ds	2
   359                           
   360                           	psect	cstackCOMMON
   361  0070                     __pcstackCOMMON:
   362  0070                     ?_lcd_command:
   363  0070                     ??_lcd_command:	
   364                           ; 1 bytes @ 0x0
   365                           
   366  0070                     ?_volt:	
   367                           ; 1 bytes @ 0x0
   368                           
   369  0070                     ?_temp:	
   370                           ; 1 bytes @ 0x0
   371                           
   372  0070                     ?_lcd_init:	
   373                           ; 1 bytes @ 0x0
   374                           
   375  0070                     ?_lcd_data:	
   376                           ; 1 bytes @ 0x0
   377                           
   378  0070                     ??_lcd_data:	
   379                           ; 1 bytes @ 0x0
   380                           
   381  0070                     ?_lcd_display:	
   382                           ; 1 bytes @ 0x0
   383                           
   384  0070                     ?_adc_init:	
   385                           ; 1 bytes @ 0x0
   386                           
   387  0070                     ??_adc_init:	
   388                           ; 1 bytes @ 0x0
   389                           
   390  0070                     ?_ADC_CH:	
   391                           ; 1 bytes @ 0x0
   392                           
   393  0070                     ?_main:	
   394                           ; 1 bytes @ 0x0
   395                           
   396  0070                     ?__Umul8_16:	
   397                           ; 1 bytes @ 0x0
   398                           
   399  0070                     ?___lwdiv:	
   400                           ; 2 bytes @ 0x0
   401                           
   402  0070                     ?___lwmod:	
   403                           ; 2 bytes @ 0x0
   404                           
   405  0070                     ?___xxtofl:	
   406                           ; 2 bytes @ 0x0
   407                           
   408  0070                     __Umul8_16@multiplicand:	
   409                           ; 4 bytes @ 0x0
   410                           
   411  0070                     ADC_CH@channel:	
   412                           ; 1 bytes @ 0x0
   413                           
   414  0070                     ___lwdiv@divisor:	
   415                           ; 2 bytes @ 0x0
   416                           
   417  0070                     ___lwmod@divisor:	
   418                           ; 2 bytes @ 0x0
   419                           
   420  0070                     ___xxtofl@val:	
   421                           ; 2 bytes @ 0x0
   422                           
   423                           
   424                           ; 4 bytes @ 0x0
   425  0070                     	ds	2
   426  0072                     ??__Umul8_16:
   427  0072                     ??_ADC_CH:	
   428                           ; 1 bytes @ 0x2
   429                           
   430  0072                     lcd_command@com:	
   431                           ; 1 bytes @ 0x2
   432                           
   433  0072                     lcd_data@data:	
   434                           ; 1 bytes @ 0x2
   435                           
   436  0072                     ___lwdiv@dividend:	
   437                           ; 1 bytes @ 0x2
   438                           
   439  0072                     ___lwmod@dividend:	
   440                           ; 2 bytes @ 0x2
   441                           
   442                           
   443                           ; 2 bytes @ 0x2
   444  0072                     	ds	1
   445  0073                     ??_lcd_init:
   446  0073                     ??_lcd_display:	
   447                           ; 1 bytes @ 0x3
   448                           
   449  0073                     ?_lcd_cursor:	
   450                           ; 1 bytes @ 0x3
   451                           
   452  0073                     lcd_cursor@col:	
   453                           ; 1 bytes @ 0x3
   454                           
   455                           
   456                           ; 1 bytes @ 0x3
   457  0073                     	ds	1
   458  0074                     ??_lcd_cursor:
   459  0074                     ??___lwdiv:	
   460                           ; 1 bytes @ 0x4
   461                           
   462  0074                     ??___lwmod:	
   463                           ; 1 bytes @ 0x4
   464                           
   465  0074                     ??___xxtofl:	
   466                           ; 1 bytes @ 0x4
   467                           
   468  0074                     lcd_cursor@row:	
   469                           ; 1 bytes @ 0x4
   470                           
   471  0074                     __Umul8_16@product:	
   472                           ; 1 bytes @ 0x4
   473                           
   474                           
   475                           ; 2 bytes @ 0x4
   476  0074                     	ds	1
   477  0075                     lcd_display@word:
   478  0075                     ___lwmod@counter:	
   479                           ; 1 bytes @ 0x5
   480                           
   481  0075                     ___lwdiv@quotient:	
   482                           ; 1 bytes @ 0x5
   483                           
   484                           
   485                           ; 2 bytes @ 0x5
   486  0075                     	ds	1
   487  0076                     __Umul8_16@word_mpld:
   488                           
   489                           ; 2 bytes @ 0x6
   490  0076                     	ds	1
   491  0077                     ___lwdiv@counter:
   492                           
   493                           ; 1 bytes @ 0x7
   494  0077                     	ds	1
   495  0078                     ?_disp_dig3:
   496  0078                     ?_disp_dig2:	
   497                           ; 1 bytes @ 0x8
   498                           
   499  0078                     __Umul8_16@multiplier:	
   500                           ; 1 bytes @ 0x8
   501                           
   502  0078                     ___xxtofl@sign:	
   503                           ; 1 bytes @ 0x8
   504                           
   505  0078                     disp_dig3@val1:	
   506                           ; 1 bytes @ 0x8
   507                           
   508  0078                     disp_dig2@val1:	
   509                           ; 2 bytes @ 0x8
   510                           
   511                           
   512                           ; 2 bytes @ 0x8
   513  0078                     	ds	1
   514  0079                     ___xxtofl@exp:
   515                           
   516                           ; 1 bytes @ 0x9
   517  0079                     	ds	1
   518  007A                     ??_disp_dig3:
   519  007A                     ??_disp_dig2:	
   520                           ; 1 bytes @ 0xA
   521                           
   522  007A                     ___xxtofl@arg:	
   523                           ; 1 bytes @ 0xA
   524                           
   525                           
   526                           ; 4 bytes @ 0xA
   527  007A                     	ds	4
   528  007E                     ??_main:
   529                           
   530                           	psect	cstackBANK0
   531  0020                     __pcstackBANK0:	
   532                           ; 1 bytes @ 0xE
   533                           
   534  0020                     ?___fldiv:
   535  0020                     ___fldiv@a:	
   536                           ; 4 bytes @ 0x0
   537                           
   538                           
   539                           ; 4 bytes @ 0x0
   540  0020                     	ds	4
   541  0024                     ___fldiv@b:
   542                           
   543                           ; 4 bytes @ 0x4
   544  0024                     	ds	4
   545  0028                     ??___fldiv:
   546                           
   547                           ; 1 bytes @ 0x8
   548  0028                     	ds	5
   549  002D                     ___fldiv@rem:
   550                           
   551                           ; 4 bytes @ 0xD
   552  002D                     	ds	4
   553  0031                     ___fldiv@sign:
   554                           
   555                           ; 1 bytes @ 0x11
   556  0031                     	ds	1
   557  0032                     ___fldiv@new_exp:
   558                           
   559                           ; 2 bytes @ 0x12
   560  0032                     	ds	2
   561  0034                     ___fldiv@grs:
   562                           
   563                           ; 4 bytes @ 0x14
   564  0034                     	ds	4
   565  0038                     ___fldiv@bexp:
   566                           
   567                           ; 1 bytes @ 0x18
   568  0038                     	ds	1
   569  0039                     ___fldiv@aexp:
   570                           
   571                           ; 1 bytes @ 0x19
   572  0039                     	ds	1
   573  003A                     ?___flmul:
   574  003A                     ___flmul@b:	
   575                           ; 4 bytes @ 0x1A
   576                           
   577                           
   578                           ; 4 bytes @ 0x1A
   579  003A                     	ds	4
   580  003E                     ___flmul@a:
   581                           
   582                           ; 4 bytes @ 0x1E
   583  003E                     	ds	4
   584  0042                     ??___flmul:
   585                           
   586                           ; 1 bytes @ 0x22
   587  0042                     	ds	5
   588  0047                     ___flmul@sign:
   589                           
   590                           ; 1 bytes @ 0x27
   591  0047                     	ds	1
   592  0048                     ___flmul@grs:
   593                           
   594                           ; 4 bytes @ 0x28
   595  0048                     	ds	4
   596  004C                     ___flmul@aexp:
   597                           
   598                           ; 1 bytes @ 0x2C
   599  004C                     	ds	1
   600  004D                     ___flmul@bexp:
   601                           
   602                           ; 1 bytes @ 0x2D
   603  004D                     	ds	1
   604  004E                     ___flmul@prod:
   605                           
   606                           ; 4 bytes @ 0x2E
   607  004E                     	ds	4
   608  0052                     ___flmul@temp:
   609                           
   610                           ; 2 bytes @ 0x32
   611  0052                     	ds	2
   612  0054                     ?___fltol:
   613  0054                     ___fltol@f1:	
   614                           ; 4 bytes @ 0x34
   615                           
   616                           
   617                           ; 4 bytes @ 0x34
   618  0054                     	ds	4
   619  0058                     ??___fltol:
   620                           
   621                           ; 1 bytes @ 0x38
   622  0058                     	ds	5
   623  005D                     ___fltol@sign1:
   624                           
   625                           ; 1 bytes @ 0x3D
   626  005D                     	ds	1
   627  005E                     ___fltol@exp1:
   628                           
   629                           ; 1 bytes @ 0x3E
   630  005E                     	ds	1
   631  005F                     ??_volt:
   632  005F                     ??_temp:	
   633                           ; 1 bytes @ 0x3F
   634                           
   635                           
   636                           ; 1 bytes @ 0x3F
   637  005F                     	ds	1
   638  0060                     _volt$722:
   639  0060                     _temp$723:	
   640                           ; 4 bytes @ 0x40
   641                           
   642                           
   643                           ; 4 bytes @ 0x40
   644  0060                     	ds	4
   645  0064                     volt@voltage:
   646  0064                     temp@temperature:	
   647                           ; 2 bytes @ 0x44
   648                           
   649                           
   650                           ; 2 bytes @ 0x44
   651  0064                     	ds	2
   652                           
   653                           	psect	maintext
   654  0D9B                     __pmaintext:	
   655 ;;
   656 ;;Main: autosize = 0, tempsize = 0, incstack = 0, save=0
   657 ;;
   658 ;; *************** function _main *****************
   659 ;; Defined at:
   660 ;;		line 8 in file "main.c"
   661 ;; Parameters:    Size  Location     Type
   662 ;;		None
   663 ;; Auto vars:     Size  Location     Type
   664 ;;		None
   665 ;; Return value:  Size  Location     Type
   666 ;;                  1    wreg      void 
   667 ;; Registers used:
   668 ;;		wreg, fsr0l, fsr0h, status,2, status,0, btemp+1, pclath, cstack
   669 ;; Tracked objects:
   670 ;;		On entry : B00/0
   671 ;;		On exit  : 0/0
   672 ;;		Unchanged: 0/0
   673 ;; Data sizes:     COMMON   BANK0   BANK1   BANK3   BANK2
   674 ;;      Params:         0       0       0       0       0
   675 ;;      Locals:         0       0       0       0       0
   676 ;;      Temps:          0       0       0       0       0
   677 ;;      Totals:         0       0       0       0       0
   678 ;;Total ram usage:        0 bytes
   679 ;; Hardware stack levels required when called: 3
   680 ;; This function calls:
   681 ;;		_adc_init
   682 ;;		_lcd_init
   683 ;;		_temp
   684 ;;		_volt
   685 ;; This function is called by:
   686 ;;		Startup code after reset
   687 ;; This function uses a non-reentrant model
   688 ;;
   689                           
   690                           
   691                           ;psect for function _main
   692  0D9B                     _main:
   693  0D9B                     l1790:	
   694                           ;incstack = 0
   695                           ; Regs used in _main: [wreg-fsr0h+status,2+status,0+btemp+1+pclath+cstack]
   696                           
   697                           
   698                           ;main.c: 10:  TRISB = 0X00;
   699  0D9B  1683               	bsf	3,5	;RP0=1, select bank1
   700  0D9C  1303               	bcf	3,6	;RP1=0, select bank1
   701  0D9D  0186               	clrf	6	;volatile
   702                           
   703                           ;main.c: 11:  PORTB = 0x00;
   704  0D9E  1283               	bcf	3,5	;RP0=0, select bank0
   705  0D9F  1303               	bcf	3,6	;RP1=0, select bank0
   706  0DA0  0186               	clrf	6	;volatile
   707                           
   708                           ;main.c: 12:  TRISD = 0X00;
   709  0DA1  1683               	bsf	3,5	;RP0=1, select bank1
   710  0DA2  1303               	bcf	3,6	;RP1=0, select bank1
   711  0DA3  0188               	clrf	8	;volatile
   712                           
   713                           ;main.c: 13:  PORTD = 0x00;
   714  0DA4  1283               	bcf	3,5	;RP0=0, select bank0
   715  0DA5  1303               	bcf	3,6	;RP1=0, select bank0
   716  0DA6  0188               	clrf	8	;volatile
   717  0DA7                     l1792:
   718                           
   719                           ;main.c: 14:  lcd_init();
   720  0DA7  120A  158A  2548  120A  158A  	fcall	_lcd_init
   721  0DAC                     l1794:
   722                           
   723                           ;main.c: 15:  adc_init();
   724  0DAC  120A  118A  200D  120A  158A  	fcall	_adc_init
   725  0DB1                     l1796:
   726                           
   727                           ;main.c: 17:   {;main.c: 18:       volt();
   728  0DB1  120A  118A  2097  120A  158A  	fcall	_volt
   729  0DB6                     l1798:
   730                           
   731                           ;main.c: 19:       temp();
   732  0DB6  120A  118A  2144  120A  158A  	fcall	_temp
   733  0DBB  2DB1               	goto	l1796
   734  0DBC  120A  118A  2800   	ljmp	start
   735  0DBF                     __end_of_main:
   736                           
   737                           	psect	text1
   738  0097                     __ptext1:	
   739 ;; *************** function _volt *****************
   740 ;; Defined at:
   741 ;;		line 22 in file "main.c"
   742 ;; Parameters:    Size  Location     Type
   743 ;;		None
   744 ;; Auto vars:     Size  Location     Type
   745 ;;  voltage         2   68[BANK0 ] unsigned int 
   746 ;; Return value:  Size  Location     Type
   747 ;;                  1    wreg      void 
   748 ;; Registers used:
   749 ;;		wreg, fsr0l, fsr0h, status,2, status,0, btemp+1, pclath, cstack
   750 ;; Tracked objects:
   751 ;;		On entry : 0/0
   752 ;;		On exit  : 0/0
   753 ;;		Unchanged: 0/0
   754 ;; Data sizes:     COMMON   BANK0   BANK1   BANK3   BANK2
   755 ;;      Params:         0       0       0       0       0
   756 ;;      Locals:         0       6       0       0       0
   757 ;;      Temps:          0       1       0       0       0
   758 ;;      Totals:         0       7       0       0       0
   759 ;;Total ram usage:        7 bytes
   760 ;; Hardware stack levels used: 1
   761 ;; Hardware stack levels required when called: 2
   762 ;; This function calls:
   763 ;;		_ADC_CH
   764 ;;		___fldiv
   765 ;;		___flmul
   766 ;;		___fltol
   767 ;;		___xxtofl
   768 ;;		_disp_dig3
   769 ;;		_lcd_cursor
   770 ;;		_lcd_display
   771 ;; This function is called by:
   772 ;;		_main
   773 ;; This function uses a non-reentrant model
   774 ;;
   775                           
   776                           
   777                           ;psect for function _volt
   778  0097                     _volt:
   779  0097                     l1754:	
   780                           ;incstack = 0
   781                           ; Regs used in _volt: [wreg-fsr0h+status,2+status,0+btemp+1+pclath+cstack]
   782                           
   783  0097                     l1756:
   784                           
   785                           ;main.c: 25:     ADC_CH(0);
   786  0097  3000               	movlw	0
   787  0098  00F0               	movwf	ADC_CH@channel
   788  0099  00F1               	movwf	ADC_CH@channel+1
   789  009A  120A  158A  266D  120A  118A  	fcall	_ADC_CH
   790  009F                     l1758:
   791                           
   792                           ;main.c: 26:    lcd_cursor(0,0);
   793  009F  01F3               	clrf	lcd_cursor@col
   794  00A0  3000               	movlw	0
   795  00A1  120A  158A  25BF  120A  118A  	fcall	_lcd_cursor
   796  00A6                     l1760:
   797                           
   798                           ;main.c: 27:  lcd_display("RA0->Volt:");
   799  00A6  300C               	movlw	(low ((STR_1-__stringbase)| (0+32768)))& (0+255)
   800  00A7  120A  158A  260C  120A  118A  	fcall	_lcd_display
   801  00AC                     l1762:
   802                           
   803                           ;main.c: 28:     lcd_cursor(0,10);
   804  00AC  300A               	movlw	10
   805  00AD  1283               	bcf	3,5	;RP0=0, select bank0
   806  00AE  1303               	bcf	3,6	;RP1=0, select bank0
   807  00AF  00DF               	movwf	??_volt
   808  00B0  085F               	movf	??_volt,w
   809  00B1  00F3               	movwf	lcd_cursor@col
   810  00B2  3000               	movlw	0
   811  00B3  120A  158A  25BF  120A  118A  	fcall	_lcd_cursor
   812  00B8                     l1764:
   813                           
   814                           ;main.c: 29:     voltage=((adc_value/1023.0)*5*10);
   815  00B8  1283               	bcf	3,5	;RP0=0, select bank0
   816  00B9  1303               	bcf	3,6	;RP1=0, select bank0
   817  00BA  086E               	movf	_adc_value,w
   818  00BB  00F0               	movwf	___xxtofl@val
   819  00BC  086F               	movf	_adc_value+1,w
   820  00BD  00F1               	movwf	___xxtofl@val+1
   821  00BE  01F2               	clrf	___xxtofl@val+2
   822  00BF  01F3               	clrf	___xxtofl@val+3
   823  00C0  3000               	movlw	0
   824  00C1  120A  118A  21F2  120A  118A  	fcall	___xxtofl
   825  00C6  0873               	movf	?___xxtofl+3,w
   826  00C7  1283               	bcf	3,5	;RP0=0, select bank0
   827  00C8  1303               	bcf	3,6	;RP1=0, select bank0
   828  00C9  00A7               	movwf	___fldiv@b+3
   829  00CA  0872               	movf	?___xxtofl+2,w
   830  00CB  00A6               	movwf	___fldiv@b+2
   831  00CC  0871               	movf	?___xxtofl+1,w
   832  00CD  00A5               	movwf	___fldiv@b+1
   833  00CE  0870               	movf	?___xxtofl,w
   834  00CF  00A4               	movwf	___fldiv@b
   835  00D0  3044               	movlw	68
   836  00D1  00A3               	movwf	___fldiv@a+3
   837  00D2  307F               	movlw	127
   838  00D3  00A2               	movwf	___fldiv@a+2
   839  00D4  30C0               	movlw	192
   840  00D5  00A1               	movwf	___fldiv@a+1
   841  00D6  3000               	movlw	0
   842  00D7  00A0               	movwf	___fldiv@a
   843  00D8  120A  118A  22AC  120A  118A  	fcall	___fldiv
   844  00DD  1283               	bcf	3,5	;RP0=0, select bank0
   845  00DE  1303               	bcf	3,6	;RP1=0, select bank0
   846  00DF  0823               	movf	?___fldiv+3,w
   847  00E0  00C1               	movwf	___flmul@a+3
   848  00E1  0822               	movf	?___fldiv+2,w
   849  00E2  00C0               	movwf	___flmul@a+2
   850  00E3  0821               	movf	?___fldiv+1,w
   851  00E4  00BF               	movwf	___flmul@a+1
   852  00E5  0820               	movf	?___fldiv,w
   853  00E6  00BE               	movwf	___flmul@a
   854  00E7  3040               	movlw	64
   855  00E8  00BD               	movwf	___flmul@b+3
   856  00E9  30A0               	movlw	160
   857  00EA  00BC               	movwf	___flmul@b+2
   858  00EB  3000               	movlw	0
   859  00EC  00BB               	movwf	___flmul@b+1
   860  00ED  3000               	movlw	0
   861  00EE  00BA               	movwf	___flmul@b
   862  00EF  120A  118A  2489  120A  118A  	fcall	___flmul
   863  00F4  1283               	bcf	3,5	;RP0=0, select bank0
   864  00F5  1303               	bcf	3,6	;RP1=0, select bank0
   865  00F6  083D               	movf	?___flmul+3,w
   866  00F7  00E3               	movwf	_volt$722+3
   867  00F8  083C               	movf	?___flmul+2,w
   868  00F9  00E2               	movwf	_volt$722+2
   869  00FA  083B               	movf	?___flmul+1,w
   870  00FB  00E1               	movwf	_volt$722+1
   871  00FC  083A               	movf	?___flmul,w
   872  00FD  00E0               	movwf	_volt$722
   873  00FE                     l1766:
   874                           
   875                           ;main.c: 29:     voltage=((adc_value/1023.0)*5*10);
   876  00FE  0863               	movf	_volt$722+3,w
   877  00FF  00C1               	movwf	___flmul@a+3
   878  0100  0862               	movf	_volt$722+2,w
   879  0101  00C0               	movwf	___flmul@a+2
   880  0102  0861               	movf	_volt$722+1,w
   881  0103  00BF               	movwf	___flmul@a+1
   882  0104  0860               	movf	_volt$722,w
   883  0105  00BE               	movwf	___flmul@a
   884  0106  3041               	movlw	65
   885  0107  00BD               	movwf	___flmul@b+3
   886  0108  3020               	movlw	32
   887  0109  00BC               	movwf	___flmul@b+2
   888  010A  3000               	movlw	0
   889  010B  00BB               	movwf	___flmul@b+1
   890  010C  3000               	movlw	0
   891  010D  00BA               	movwf	___flmul@b
   892  010E  120A  118A  2489  120A  118A  	fcall	___flmul
   893  0113  1283               	bcf	3,5	;RP0=0, select bank0
   894  0114  1303               	bcf	3,6	;RP1=0, select bank0
   895  0115  083D               	movf	?___flmul+3,w
   896  0116  00D7               	movwf	___fltol@f1+3
   897  0117  083C               	movf	?___flmul+2,w
   898  0118  00D6               	movwf	___fltol@f1+2
   899  0119  083B               	movf	?___flmul+1,w
   900  011A  00D5               	movwf	___fltol@f1+1
   901  011B  083A               	movf	?___flmul,w
   902  011C  00D4               	movwf	___fltol@f1
   903  011D  120A  158A  26EE  120A  118A  	fcall	___fltol
   904  0122  1283               	bcf	3,5	;RP0=0, select bank0
   905  0123  1303               	bcf	3,6	;RP1=0, select bank0
   906  0124  0855               	movf	?___fltol+1,w
   907  0125  00E5               	movwf	volt@voltage+1
   908  0126  0854               	movf	?___fltol,w
   909  0127  00E4               	movwf	volt@voltage
   910  0128                     l1768:
   911                           
   912                           ;main.c: 30:     disp_dig3(voltage);
   913  0128  0865               	movf	volt@voltage+1,w
   914  0129  00F9               	movwf	disp_dig3@val1+1
   915  012A  0864               	movf	volt@voltage,w
   916  012B  00F8               	movwf	disp_dig3@val1
   917  012C  120A  158A  276A  120A  118A  	fcall	_disp_dig3
   918  0131                     l1770:
   919                           
   920                           ;main.c: 31:  lcd_cursor(0,15);
   921  0131  300F               	movlw	15
   922  0132  1283               	bcf	3,5	;RP0=0, select bank0
   923  0133  1303               	bcf	3,6	;RP1=0, select bank0
   924  0134  00DF               	movwf	??_volt
   925  0135  085F               	movf	??_volt,w
   926  0136  00F3               	movwf	lcd_cursor@col
   927  0137  3000               	movlw	0
   928  0138  120A  158A  25BF  120A  118A  	fcall	_lcd_cursor
   929  013D                     l1772:
   930                           
   931                           ;main.c: 32:  lcd_display("V");
   932  013D  301A               	movlw	(low ((STR_2-__stringbase)| (0+32768)))& (0+255)
   933  013E  120A  158A  260C  120A  118A  	fcall	_lcd_display
   934  0143                     l111:
   935  0143  0008               	return
   936  0144                     __end_of_volt:
   937                           
   938                           	psect	text2
   939  0F6A                     __ptext2:	
   940 ;; *************** function _disp_dig3 *****************
   941 ;; Defined at:
   942 ;;		line 58 in file "./adc.h"
   943 ;; Parameters:    Size  Location     Type
   944 ;;  val1            2    8[COMMON] unsigned int 
   945 ;; Auto vars:     Size  Location     Type
   946 ;;		None
   947 ;; Return value:  Size  Location     Type
   948 ;;                  1    wreg      void 
   949 ;; Registers used:
   950 ;;		wreg, status,2, status,0, pclath, cstack
   951 ;; Tracked objects:
   952 ;;		On entry : 0/0
   953 ;;		On exit  : 0/0
   954 ;;		Unchanged: 0/0
   955 ;; Data sizes:     COMMON   BANK0   BANK1   BANK3   BANK2
   956 ;;      Params:         2       0       0       0       0
   957 ;;      Locals:         0       0       0       0       0
   958 ;;      Temps:          0       0       0       0       0
   959 ;;      Totals:         2       0       0       0       0
   960 ;;Total ram usage:        2 bytes
   961 ;; Hardware stack levels used: 1
   962 ;; Hardware stack levels required when called: 1
   963 ;; This function calls:
   964 ;;		___lwdiv
   965 ;;		___lwmod
   966 ;;		_lcd_data
   967 ;; This function is called by:
   968 ;;		_volt
   969 ;; This function uses a non-reentrant model
   970 ;;
   971                           
   972                           
   973                           ;psect for function _disp_dig3
   974  0F6A                     _disp_dig3:
   975  0F6A                     l1386:	
   976                           ;incstack = 0
   977                           ; Regs used in _disp_dig3: [wreg+status,2+status,0+pclath+cstack]
   978                           
   979                           
   980                           ;./adc.h: 58: void disp_dig3(unsigned int val1);./adc.h: 59: {;./adc.h: 60:  val2=val1/1
      +                          000;
   981  0F6A  30E8               	movlw	232
   982  0F6B  00F0               	movwf	___lwdiv@divisor
   983  0F6C  3003               	movlw	3
   984  0F6D  00F1               	movwf	___lwdiv@divisor+1
   985  0F6E  0879               	movf	disp_dig3@val1+1,w
   986  0F6F  00F3               	movwf	___lwdiv@dividend+1
   987  0F70  0878               	movf	disp_dig3@val1,w
   988  0F71  00F2               	movwf	___lwdiv@dividend
   989  0F72  120A  158A  26AA  120A  158A  	fcall	___lwdiv
   990  0F77  0871               	movf	?___lwdiv+1,w
   991  0F78  1683               	bsf	3,5	;RP0=1, select bank1
   992  0F79  1303               	bcf	3,6	;RP1=0, select bank1
   993  0F7A  00A3               	movwf	(_val2+1)^(0+128)
   994  0F7B  0870               	movf	?___lwdiv,w
   995  0F7C  00A2               	movwf	_val2^(0+128)
   996                           
   997                           ;./adc.h: 61:  val3=val1%1000;
   998  0F7D  30E8               	movlw	232
   999  0F7E  00F0               	movwf	___lwmod@divisor
  1000  0F7F  3003               	movlw	3
  1001  0F80  00F1               	movwf	___lwmod@divisor+1
  1002  0F81  0879               	movf	disp_dig3@val1+1,w
  1003  0F82  00F3               	movwf	___lwmod@dividend+1
  1004  0F83  0878               	movf	disp_dig3@val1,w
  1005  0F84  00F2               	movwf	___lwmod@dividend
  1006  0F85  120A  158A  2633  120A  158A  	fcall	___lwmod
  1007  0F8A  0871               	movf	?___lwmod+1,w
  1008  0F8B  1283               	bcf	3,5	;RP0=0, select bank0
  1009  0F8C  1303               	bcf	3,6	;RP1=0, select bank0
  1010  0F8D  00ED               	movwf	_val3+1
  1011  0F8E  0870               	movf	?___lwmod,w
  1012  0F8F  00EC               	movwf	_val3
  1013                           
  1014                           ;./adc.h: 62:  val4=val3/100;
  1015  0F90  3064               	movlw	100
  1016  0F91  00F0               	movwf	___lwdiv@divisor
  1017  0F92  3000               	movlw	0
  1018  0F93  00F1               	movwf	___lwdiv@divisor+1
  1019  0F94  086D               	movf	_val3+1,w
  1020  0F95  00F3               	movwf	___lwdiv@dividend+1
  1021  0F96  086C               	movf	_val3,w
  1022  0F97  00F2               	movwf	___lwdiv@dividend
  1023  0F98  120A  158A  26AA  120A  158A  	fcall	___lwdiv
  1024  0F9D  0871               	movf	?___lwdiv+1,w
  1025  0F9E  1683               	bsf	3,5	;RP0=1, select bank1
  1026  0F9F  1303               	bcf	3,6	;RP1=0, select bank1
  1027  0FA0  00A1               	movwf	(_val4+1)^(0+128)
  1028  0FA1  0870               	movf	?___lwdiv,w
  1029  0FA2  00A0               	movwf	_val4^(0+128)
  1030                           
  1031                           ;./adc.h: 63:  val5=val3%100;
  1032  0FA3  3064               	movlw	100
  1033  0FA4  00F0               	movwf	___lwmod@divisor
  1034  0FA5  3000               	movlw	0
  1035  0FA6  00F1               	movwf	___lwmod@divisor+1
  1036  0FA7  1283               	bcf	3,5	;RP0=0, select bank0
  1037  0FA8  1303               	bcf	3,6	;RP1=0, select bank0
  1038  0FA9  086D               	movf	_val3+1,w
  1039  0FAA  00F3               	movwf	___lwmod@dividend+1
  1040  0FAB  086C               	movf	_val3,w
  1041  0FAC  00F2               	movwf	___lwmod@dividend
  1042  0FAD  120A  158A  2633  120A  158A  	fcall	___lwmod
  1043  0FB2  0871               	movf	?___lwmod+1,w
  1044  0FB3  1283               	bcf	3,5	;RP0=0, select bank0
  1045  0FB4  1303               	bcf	3,6	;RP1=0, select bank0
  1046  0FB5  00EB               	movwf	_val5+1
  1047  0FB6  0870               	movf	?___lwmod,w
  1048  0FB7  00EA               	movwf	_val5
  1049                           
  1050                           ;./adc.h: 64:  val6=val5/10;
  1051  0FB8  300A               	movlw	10
  1052  0FB9  00F0               	movwf	___lwdiv@divisor
  1053  0FBA  3000               	movlw	0
  1054  0FBB  00F1               	movwf	___lwdiv@divisor+1
  1055  0FBC  086B               	movf	_val5+1,w
  1056  0FBD  00F3               	movwf	___lwdiv@dividend+1
  1057  0FBE  086A               	movf	_val5,w
  1058  0FBF  00F2               	movwf	___lwdiv@dividend
  1059  0FC0  120A  158A  26AA  120A  158A  	fcall	___lwdiv
  1060  0FC5  0871               	movf	?___lwdiv+1,w
  1061  0FC6  1283               	bcf	3,5	;RP0=0, select bank0
  1062  0FC7  1303               	bcf	3,6	;RP1=0, select bank0
  1063  0FC8  00E9               	movwf	_val6+1
  1064  0FC9  0870               	movf	?___lwdiv,w
  1065  0FCA  00E8               	movwf	_val6
  1066                           
  1067                           ;./adc.h: 65:  val7=val5%10;
  1068  0FCB  300A               	movlw	10
  1069  0FCC  00F0               	movwf	___lwmod@divisor
  1070  0FCD  3000               	movlw	0
  1071  0FCE  00F1               	movwf	___lwmod@divisor+1
  1072  0FCF  086B               	movf	_val5+1,w
  1073  0FD0  00F3               	movwf	___lwmod@dividend+1
  1074  0FD1  086A               	movf	_val5,w
  1075  0FD2  00F2               	movwf	___lwmod@dividend
  1076  0FD3  120A  158A  2633  120A  158A  	fcall	___lwmod
  1077  0FD8  0871               	movf	?___lwmod+1,w
  1078  0FD9  1283               	bcf	3,5	;RP0=0, select bank0
  1079  0FDA  1303               	bcf	3,6	;RP1=0, select bank0
  1080  0FDB  00E7               	movwf	_val7+1
  1081  0FDC  0870               	movf	?___lwmod,w
  1082  0FDD  00E6               	movwf	_val7
  1083                           
  1084                           ;./adc.h: 66:  lcd_data(val4+0x30);
  1085  0FDE  1683               	bsf	3,5	;RP0=1, select bank1
  1086  0FDF  1303               	bcf	3,6	;RP1=0, select bank1
  1087  0FE0  0820               	movf	_val4^(0+128),w
  1088  0FE1  3E30               	addlw	48
  1089  0FE2  120A  158A  257E  120A  158A  	fcall	_lcd_data
  1090                           
  1091                           ;./adc.h: 67:  lcd_data(val6+0x30);
  1092  0FE7  1283               	bcf	3,5	;RP0=0, select bank0
  1093  0FE8  1303               	bcf	3,6	;RP1=0, select bank0
  1094  0FE9  0868               	movf	_val6,w
  1095  0FEA  3E30               	addlw	48
  1096  0FEB  120A  158A  257E  120A  158A  	fcall	_lcd_data
  1097                           
  1098                           ;./adc.h: 68:  lcd_data('.');
  1099  0FF0  302E               	movlw	46
  1100  0FF1  120A  158A  257E  120A  158A  	fcall	_lcd_data
  1101                           
  1102                           ;./adc.h: 69:  lcd_data(val7+0x30);
  1103  0FF6  1283               	bcf	3,5	;RP0=0, select bank0
  1104  0FF7  1303               	bcf	3,6	;RP1=0, select bank0
  1105  0FF8  0866               	movf	_val7,w
  1106  0FF9  3E30               	addlw	48
  1107  0FFA  120A  158A  257E  120A  158A  	fcall	_lcd_data
  1108  0FFF                     l97:
  1109  0FFF  0008               	return
  1110  1000                     __end_of_disp_dig3:
  1111                           
  1112                           	psect	text3
  1113  0144                     __ptext3:	
  1114 ;; *************** function _temp *****************
  1115 ;; Defined at:
  1116 ;;		line 34 in file "main.c"
  1117 ;; Parameters:    Size  Location     Type
  1118 ;;		None
  1119 ;; Auto vars:     Size  Location     Type
  1120 ;;  temperature     2   68[BANK0 ] unsigned int 
  1121 ;; Return value:  Size  Location     Type
  1122 ;;                  1    wreg      void 
  1123 ;; Registers used:
  1124 ;;		wreg, fsr0l, fsr0h, status,2, status,0, btemp+1, pclath, cstack
  1125 ;; Tracked objects:
  1126 ;;		On entry : 0/0
  1127 ;;		On exit  : 0/0
  1128 ;;		Unchanged: 0/0
  1129 ;; Data sizes:     COMMON   BANK0   BANK1   BANK3   BANK2
  1130 ;;      Params:         0       0       0       0       0
  1131 ;;      Locals:         0       6       0       0       0
  1132 ;;      Temps:          0       1       0       0       0
  1133 ;;      Totals:         0       7       0       0       0
  1134 ;;Total ram usage:        7 bytes
  1135 ;; Hardware stack levels used: 1
  1136 ;; Hardware stack levels required when called: 2
  1137 ;; This function calls:
  1138 ;;		_ADC_CH
  1139 ;;		___fldiv
  1140 ;;		___flmul
  1141 ;;		___fltol
  1142 ;;		___xxtofl
  1143 ;;		_disp_dig2
  1144 ;;		_lcd_cursor
  1145 ;;		_lcd_display
  1146 ;; This function is called by:
  1147 ;;		_main
  1148 ;; This function uses a non-reentrant model
  1149 ;;
  1150                           
  1151                           
  1152                           ;psect for function _temp
  1153  0144                     _temp:
  1154  0144                     l1774:	
  1155                           ;incstack = 0
  1156                           ; Regs used in _temp: [wreg-fsr0h+status,2+status,0+btemp+1+pclath+cstack]
  1157                           
  1158                           
  1159                           ;main.c: 36:     unsigned int temperature;;main.c: 37:  ADC_CH(1);
  1160  0144  3001               	movlw	1
  1161  0145  00F0               	movwf	ADC_CH@channel
  1162  0146  3000               	movlw	0
  1163  0147  00F1               	movwf	ADC_CH@channel+1
  1164  0148  120A  158A  266D  120A  118A  	fcall	_ADC_CH
  1165  014D                     l1776:
  1166                           
  1167                           ;main.c: 38:     lcd_cursor(1,0);
  1168  014D  01F3               	clrf	lcd_cursor@col
  1169  014E  3001               	movlw	1
  1170  014F  120A  158A  25BF  120A  118A  	fcall	_lcd_cursor
  1171  0154                     l1778:
  1172                           
  1173                           ;main.c: 39:  lcd_display("RA1->temp:");
  1174  0154  3001               	movlw	(low ((STR_3-__stringbase)| (0+32768)))& (0+255)
  1175  0155  120A  158A  260C  120A  118A  	fcall	_lcd_display
  1176                           
  1177                           ;main.c: 40:     lcd_cursor(1,10);
  1178  015A  300A               	movlw	10
  1179  015B  1283               	bcf	3,5	;RP0=0, select bank0
  1180  015C  1303               	bcf	3,6	;RP1=0, select bank0
  1181  015D  00DF               	movwf	??_temp
  1182  015E  085F               	movf	??_temp,w
  1183  015F  00F3               	movwf	lcd_cursor@col
  1184  0160  3001               	movlw	1
  1185  0161  120A  158A  25BF  120A  118A  	fcall	_lcd_cursor
  1186  0166                     l1780:
  1187                           
  1188                           ;main.c: 41:     temperature=((adc_value/1023.0)*5*100);
  1189  0166  1283               	bcf	3,5	;RP0=0, select bank0
  1190  0167  1303               	bcf	3,6	;RP1=0, select bank0
  1191  0168  086E               	movf	_adc_value,w
  1192  0169  00F0               	movwf	___xxtofl@val
  1193  016A  086F               	movf	_adc_value+1,w
  1194  016B  00F1               	movwf	___xxtofl@val+1
  1195  016C  01F2               	clrf	___xxtofl@val+2
  1196  016D  01F3               	clrf	___xxtofl@val+3
  1197  016E  3000               	movlw	0
  1198  016F  120A  118A  21F2  120A  118A  	fcall	___xxtofl
  1199  0174  0873               	movf	?___xxtofl+3,w
  1200  0175  1283               	bcf	3,5	;RP0=0, select bank0
  1201  0176  1303               	bcf	3,6	;RP1=0, select bank0
  1202  0177  00A7               	movwf	___fldiv@b+3
  1203  0178  0872               	movf	?___xxtofl+2,w
  1204  0179  00A6               	movwf	___fldiv@b+2
  1205  017A  0871               	movf	?___xxtofl+1,w
  1206  017B  00A5               	movwf	___fldiv@b+1
  1207  017C  0870               	movf	?___xxtofl,w
  1208  017D  00A4               	movwf	___fldiv@b
  1209  017E  3044               	movlw	68
  1210  017F  00A3               	movwf	___fldiv@a+3
  1211  0180  307F               	movlw	127
  1212  0181  00A2               	movwf	___fldiv@a+2
  1213  0182  30C0               	movlw	192
  1214  0183  00A1               	movwf	___fldiv@a+1
  1215  0184  3000               	movlw	0
  1216  0185  00A0               	movwf	___fldiv@a
  1217  0186  120A  118A  22AC  120A  118A  	fcall	___fldiv
  1218  018B  1283               	bcf	3,5	;RP0=0, select bank0
  1219  018C  1303               	bcf	3,6	;RP1=0, select bank0
  1220  018D  0823               	movf	?___fldiv+3,w
  1221  018E  00C1               	movwf	___flmul@a+3
  1222  018F  0822               	movf	?___fldiv+2,w
  1223  0190  00C0               	movwf	___flmul@a+2
  1224  0191  0821               	movf	?___fldiv+1,w
  1225  0192  00BF               	movwf	___flmul@a+1
  1226  0193  0820               	movf	?___fldiv,w
  1227  0194  00BE               	movwf	___flmul@a
  1228  0195  3040               	movlw	64
  1229  0196  00BD               	movwf	___flmul@b+3
  1230  0197  30A0               	movlw	160
  1231  0198  00BC               	movwf	___flmul@b+2
  1232  0199  3000               	movlw	0
  1233  019A  00BB               	movwf	___flmul@b+1
  1234  019B  3000               	movlw	0
  1235  019C  00BA               	movwf	___flmul@b
  1236  019D  120A  118A  2489  120A  118A  	fcall	___flmul
  1237  01A2  1283               	bcf	3,5	;RP0=0, select bank0
  1238  01A3  1303               	bcf	3,6	;RP1=0, select bank0
  1239  01A4  083D               	movf	?___flmul+3,w
  1240  01A5  00E3               	movwf	_temp$723+3
  1241  01A6  083C               	movf	?___flmul+2,w
  1242  01A7  00E2               	movwf	_temp$723+2
  1243  01A8  083B               	movf	?___flmul+1,w
  1244  01A9  00E1               	movwf	_temp$723+1
  1245  01AA  083A               	movf	?___flmul,w
  1246  01AB  00E0               	movwf	_temp$723
  1247  01AC                     l1782:
  1248                           
  1249                           ;main.c: 41:     temperature=((adc_value/1023.0)*5*100);
  1250  01AC  0863               	movf	_temp$723+3,w
  1251  01AD  00C1               	movwf	___flmul@a+3
  1252  01AE  0862               	movf	_temp$723+2,w
  1253  01AF  00C0               	movwf	___flmul@a+2
  1254  01B0  0861               	movf	_temp$723+1,w
  1255  01B1  00BF               	movwf	___flmul@a+1
  1256  01B2  0860               	movf	_temp$723,w
  1257  01B3  00BE               	movwf	___flmul@a
  1258  01B4  3042               	movlw	66
  1259  01B5  00BD               	movwf	___flmul@b+3
  1260  01B6  30C8               	movlw	200
  1261  01B7  00BC               	movwf	___flmul@b+2
  1262  01B8  3000               	movlw	0
  1263  01B9  00BB               	movwf	___flmul@b+1
  1264  01BA  3000               	movlw	0
  1265  01BB  00BA               	movwf	___flmul@b
  1266  01BC  120A  118A  2489  120A  118A  	fcall	___flmul
  1267  01C1  1283               	bcf	3,5	;RP0=0, select bank0
  1268  01C2  1303               	bcf	3,6	;RP1=0, select bank0
  1269  01C3  083D               	movf	?___flmul+3,w
  1270  01C4  00D7               	movwf	___fltol@f1+3
  1271  01C5  083C               	movf	?___flmul+2,w
  1272  01C6  00D6               	movwf	___fltol@f1+2
  1273  01C7  083B               	movf	?___flmul+1,w
  1274  01C8  00D5               	movwf	___fltol@f1+1
  1275  01C9  083A               	movf	?___flmul,w
  1276  01CA  00D4               	movwf	___fltol@f1
  1277  01CB  120A  158A  26EE  120A  118A  	fcall	___fltol
  1278  01D0  1283               	bcf	3,5	;RP0=0, select bank0
  1279  01D1  1303               	bcf	3,6	;RP1=0, select bank0
  1280  01D2  0855               	movf	?___fltol+1,w
  1281  01D3  00E5               	movwf	temp@temperature+1
  1282  01D4  0854               	movf	?___fltol,w
  1283  01D5  00E4               	movwf	temp@temperature
  1284                           
  1285                           ;main.c: 42:     disp_dig2(temperature);
  1286  01D6  0865               	movf	temp@temperature+1,w
  1287  01D7  00F9               	movwf	disp_dig2@val1+1
  1288  01D8  0864               	movf	temp@temperature,w
  1289  01D9  00F8               	movwf	disp_dig2@val1
  1290  01DA  120A  118A  2012  120A  118A  	fcall	_disp_dig2
  1291                           
  1292                           ;main.c: 43:  lcd_cursor(1,12);
  1293  01DF  300C               	movlw	12
  1294  01E0  1283               	bcf	3,5	;RP0=0, select bank0
  1295  01E1  1303               	bcf	3,6	;RP1=0, select bank0
  1296  01E2  00DF               	movwf	??_temp
  1297  01E3  085F               	movf	??_temp,w
  1298  01E4  00F3               	movwf	lcd_cursor@col
  1299  01E5  3001               	movlw	1
  1300  01E6  120A  158A  25BF  120A  118A  	fcall	_lcd_cursor
  1301  01EB                     l1784:
  1302                           
  1303                           ;main.c: 44:  lcd_display("'C");
  1304  01EB  3017               	movlw	(low ((STR_4-__stringbase)| (0+32768)))& (0+255)
  1305  01EC  120A  158A  260C  120A  118A  	fcall	_lcd_display
  1306  01F1                     l114:
  1307  01F1  0008               	return
  1308  01F2                     __end_of_temp:
  1309                           
  1310                           	psect	text4
  1311  0E0C                     __ptext4:	
  1312 ;; *************** function _lcd_display *****************
  1313 ;; Defined at:
  1314 ;;		line 35 in file "./lcd.h"
  1315 ;; Parameters:    Size  Location     Type
  1316 ;;  word            1    wreg     PTR const unsigned char 
  1317 ;;		 -> STR_4(3), STR_3(11), STR_2(2), STR_1(11), 
  1318 ;; Auto vars:     Size  Location     Type
  1319 ;;  word            1    5[COMMON] PTR const unsigned char 
  1320 ;;		 -> STR_4(3), STR_3(11), STR_2(2), STR_1(11), 
  1321 ;; Return value:  Size  Location     Type
  1322 ;;                  1    wreg      void 
  1323 ;; Registers used:
  1324 ;;		wreg, fsr0l, fsr0h, status,2, status,0, pclath, cstack
  1325 ;; Tracked objects:
  1326 ;;		On entry : 0/0
  1327 ;;		On exit  : 0/0
  1328 ;;		Unchanged: 0/0
  1329 ;; Data sizes:     COMMON   BANK0   BANK1   BANK3   BANK2
  1330 ;;      Params:         0       0       0       0       0
  1331 ;;      Locals:         1       0       0       0       0
  1332 ;;      Temps:          2       0       0       0       0
  1333 ;;      Totals:         3       0       0       0       0
  1334 ;;Total ram usage:        3 bytes
  1335 ;; Hardware stack levels used: 1
  1336 ;; Hardware stack levels required when called: 1
  1337 ;; This function calls:
  1338 ;;		_lcd_data
  1339 ;; This function is called by:
  1340 ;;		_volt
  1341 ;;		_temp
  1342 ;; This function uses a non-reentrant model
  1343 ;;
  1344                           
  1345                           
  1346                           ;psect for function _lcd_display
  1347  0E0C                     _lcd_display:
  1348                           
  1349                           ;incstack = 0
  1350                           ; Regs used in _lcd_display: [wreg-fsr0h+status,2+status,0+pclath+cstack]
  1351                           ;lcd_display@word stored from wreg
  1352  0E0C  00F5               	movwf	lcd_display@word
  1353  0E0D                     l1342:
  1354                           
  1355                           ;./lcd.h: 35: void lcd_display(const char *word);./lcd.h: 36: {;./lcd.h: 37: while(*word
      +                          )
  1356  0E0D  2E26               	goto	l1350
  1357  0E0E                     l1344:
  1358                           
  1359                           ;./lcd.h: 38: {;./lcd.h: 39: lcd_data(*word++);
  1360  0E0E  0875               	movf	lcd_display@word,w
  1361  0E0F  0084               	movwf	4
  1362  0E10  120A  158A  2000  120A  158A  	fcall	stringdir
  1363  0E15  120A  158A  257E  120A  158A  	fcall	_lcd_data
  1364  0E1A                     l1346:
  1365  0E1A  3001               	movlw	1
  1366  0E1B  00F3               	movwf	??_lcd_display
  1367  0E1C  0873               	movf	??_lcd_display,w
  1368  0E1D  07F5               	addwf	lcd_display@word,f
  1369  0E1E                     l1348:
  1370                           
  1371                           ;./lcd.h: 40: _delay((unsigned long)((1)*(20000000/4000.0)));
  1372  0E1E  3007               	movlw	7
  1373  0E1F  00F4               	movwf	??_lcd_display+1
  1374  0E20  307D               	movlw	125
  1375  0E21  00F3               	movwf	??_lcd_display
  1376  0E22                     u2277:
  1377  0E22  0BF3               	decfsz	??_lcd_display,f
  1378  0E23  2E22               	goto	u2277
  1379  0E24  0BF4               	decfsz	??_lcd_display+1,f
  1380  0E25  2E22               	goto	u2277
  1381  0E26                     l1350:
  1382                           
  1383                           ;./lcd.h: 37: while(*word)
  1384  0E26  0875               	movf	lcd_display@word,w
  1385  0E27  0084               	movwf	4
  1386  0E28  120A  158A  2000  120A  158A  	fcall	stringdir
  1387  0E2D  3A00               	xorlw	0
  1388  0E2E  1D03               	skipz
  1389  0E2F  2E31               	goto	u1301
  1390  0E30  2E32               	goto	u1300
  1391  0E31                     u1301:
  1392  0E31  2E0E               	goto	l1344
  1393  0E32                     u1300:
  1394  0E32                     l45:
  1395  0E32  0008               	return
  1396  0E33                     __end_of_lcd_display:
  1397                           
  1398                           	psect	text5
  1399  0DBF                     __ptext5:	
  1400 ;; *************** function _lcd_cursor *****************
  1401 ;; Defined at:
  1402 ;;		line 47 in file "./lcd.h"
  1403 ;; Parameters:    Size  Location     Type
  1404 ;;  row             1    wreg     unsigned char 
  1405 ;;  col             1    3[COMMON] unsigned char 
  1406 ;; Auto vars:     Size  Location     Type
  1407 ;;  row             1    4[COMMON] unsigned char 
  1408 ;; Return value:  Size  Location     Type
  1409 ;;                  1    wreg      void 
  1410 ;; Registers used:
  1411 ;;		wreg, status,2, status,0, pclath, cstack
  1412 ;; Tracked objects:
  1413 ;;		On entry : 0/0
  1414 ;;		On exit  : 0/0
  1415 ;;		Unchanged: 0/0
  1416 ;; Data sizes:     COMMON   BANK0   BANK1   BANK3   BANK2
  1417 ;;      Params:         1       0       0       0       0
  1418 ;;      Locals:         1       0       0       0       0
  1419 ;;      Temps:          0       0       0       0       0
  1420 ;;      Totals:         2       0       0       0       0
  1421 ;;Total ram usage:        2 bytes
  1422 ;; Hardware stack levels used: 1
  1423 ;; Hardware stack levels required when called: 1
  1424 ;; This function calls:
  1425 ;;		_lcd_command
  1426 ;; This function is called by:
  1427 ;;		_volt
  1428 ;;		_temp
  1429 ;; This function uses a non-reentrant model
  1430 ;;
  1431                           
  1432                           
  1433                           ;psect for function _lcd_cursor
  1434  0DBF                     _lcd_cursor:
  1435                           
  1436                           ;incstack = 0
  1437                           ; Regs used in _lcd_cursor: [wreg+status,2+status,0+pclath+cstack]
  1438                           ;lcd_cursor@row stored from wreg
  1439  0DBF  00F4               	movwf	lcd_cursor@row
  1440  0DC0                     l1352:
  1441                           
  1442                           ;./lcd.h: 47: void lcd_cursor(unsigned char row,unsigned char col);./lcd.h: 48: {;./lcd.
      +                          h: 49:  if(row==0){lcd_command(0x80);lcd_command(0x80+col);}
  1443  0DC0  0874               	movf	lcd_cursor@row,w
  1444  0DC1  1D03               	btfss	3,2
  1445  0DC2  2DC4               	goto	u1311
  1446  0DC3  2DC5               	goto	u1310
  1447  0DC4                     u1311:
  1448  0DC4  2DD2               	goto	l1356
  1449  0DC5                     u1310:
  1450  0DC5                     l1354:
  1451  0DC5  3080               	movlw	128
  1452  0DC6  120A  158A  2561  120A  158A  	fcall	_lcd_command
  1453  0DCB  0873               	movf	lcd_cursor@col,w
  1454  0DCC  3E80               	addlw	128
  1455  0DCD  120A  158A  2561  120A  158A  	fcall	_lcd_command
  1456  0DD2                     l1356:
  1457                           
  1458                           ;./lcd.h: 50:  if(row==1){lcd_command(0xc0);lcd_command(0xc0+col);}
  1459  0DD2  0374               	decf	lcd_cursor@row,w
  1460  0DD3  1D03               	btfss	3,2
  1461  0DD4  2DD6               	goto	u1321
  1462  0DD5  2DD7               	goto	u1320
  1463  0DD6                     u1321:
  1464  0DD6  2DE4               	goto	l53
  1465  0DD7                     u1320:
  1466  0DD7                     l1358:
  1467  0DD7  30C0               	movlw	192
  1468  0DD8  120A  158A  2561  120A  158A  	fcall	_lcd_command
  1469  0DDD  0873               	movf	lcd_cursor@col,w
  1470  0DDE  3EC0               	addlw	192
  1471  0DDF  120A  158A  2561  120A  158A  	fcall	_lcd_command
  1472  0DE4                     l53:
  1473  0DE4  0008               	return
  1474  0DE5                     __end_of_lcd_cursor:
  1475                           
  1476                           	psect	text6
  1477  0012                     __ptext6:	
  1478 ;; *************** function _disp_dig2 *****************
  1479 ;; Defined at:
  1480 ;;		line 71 in file "./adc.h"
  1481 ;; Parameters:    Size  Location     Type
  1482 ;;  val1            2    8[COMMON] unsigned int 
  1483 ;; Auto vars:     Size  Location     Type
  1484 ;;		None
  1485 ;; Return value:  Size  Location     Type
  1486 ;;                  1    wreg      void 
  1487 ;; Registers used:
  1488 ;;		wreg, status,2, status,0, pclath, cstack
  1489 ;; Tracked objects:
  1490 ;;		On entry : 0/0
  1491 ;;		On exit  : 0/0
  1492 ;;		Unchanged: 0/0
  1493 ;; Data sizes:     COMMON   BANK0   BANK1   BANK3   BANK2
  1494 ;;      Params:         2       0       0       0       0
  1495 ;;      Locals:         0       0       0       0       0
  1496 ;;      Temps:          0       0       0       0       0
  1497 ;;      Totals:         2       0       0       0       0
  1498 ;;Total ram usage:        2 bytes
  1499 ;; Hardware stack levels used: 1
  1500 ;; Hardware stack levels required when called: 1
  1501 ;; This function calls:
  1502 ;;		___lwdiv
  1503 ;;		___lwmod
  1504 ;;		_lcd_data
  1505 ;; This function is called by:
  1506 ;;		_temp
  1507 ;; This function uses a non-reentrant model
  1508 ;;
  1509                           
  1510                           
  1511                           ;psect for function _disp_dig2
  1512  0012                     _disp_dig2:
  1513  0012                     l1388:	
  1514                           ;incstack = 0
  1515                           ; Regs used in _disp_dig2: [wreg+status,2+status,0+pclath+cstack]
  1516                           
  1517                           
  1518                           ;./adc.h: 71: void disp_dig2(unsigned int val1);./adc.h: 72: {;./adc.h: 73:  val2=val1/1
      +                          000;
  1519  0012  30E8               	movlw	232
  1520  0013  00F0               	movwf	___lwdiv@divisor
  1521  0014  3003               	movlw	3
  1522  0015  00F1               	movwf	___lwdiv@divisor+1
  1523  0016  0879               	movf	disp_dig2@val1+1,w
  1524  0017  00F3               	movwf	___lwdiv@dividend+1
  1525  0018  0878               	movf	disp_dig2@val1,w
  1526  0019  00F2               	movwf	___lwdiv@dividend
  1527  001A  120A  158A  26AA  120A  118A  	fcall	___lwdiv
  1528  001F  0871               	movf	?___lwdiv+1,w
  1529  0020  1683               	bsf	3,5	;RP0=1, select bank1
  1530  0021  1303               	bcf	3,6	;RP1=0, select bank1
  1531  0022  00A3               	movwf	(_val2+1)^(0+128)
  1532  0023  0870               	movf	?___lwdiv,w
  1533  0024  00A2               	movwf	_val2^(0+128)
  1534                           
  1535                           ;./adc.h: 74:  val3=val1%1000;
  1536  0025  30E8               	movlw	232
  1537  0026  00F0               	movwf	___lwmod@divisor
  1538  0027  3003               	movlw	3
  1539  0028  00F1               	movwf	___lwmod@divisor+1
  1540  0029  0879               	movf	disp_dig2@val1+1,w
  1541  002A  00F3               	movwf	___lwmod@dividend+1
  1542  002B  0878               	movf	disp_dig2@val1,w
  1543  002C  00F2               	movwf	___lwmod@dividend
  1544  002D  120A  158A  2633  120A  118A  	fcall	___lwmod
  1545  0032  0871               	movf	?___lwmod+1,w
  1546  0033  1283               	bcf	3,5	;RP0=0, select bank0
  1547  0034  1303               	bcf	3,6	;RP1=0, select bank0
  1548  0035  00ED               	movwf	_val3+1
  1549  0036  0870               	movf	?___lwmod,w
  1550  0037  00EC               	movwf	_val3
  1551                           
  1552                           ;./adc.h: 75:  val4=val3/100;
  1553  0038  3064               	movlw	100
  1554  0039  00F0               	movwf	___lwdiv@divisor
  1555  003A  3000               	movlw	0
  1556  003B  00F1               	movwf	___lwdiv@divisor+1
  1557  003C  086D               	movf	_val3+1,w
  1558  003D  00F3               	movwf	___lwdiv@dividend+1
  1559  003E  086C               	movf	_val3,w
  1560  003F  00F2               	movwf	___lwdiv@dividend
  1561  0040  120A  158A  26AA  120A  118A  	fcall	___lwdiv
  1562  0045  0871               	movf	?___lwdiv+1,w
  1563  0046  1683               	bsf	3,5	;RP0=1, select bank1
  1564  0047  1303               	bcf	3,6	;RP1=0, select bank1
  1565  0048  00A1               	movwf	(_val4+1)^(0+128)
  1566  0049  0870               	movf	?___lwdiv,w
  1567  004A  00A0               	movwf	_val4^(0+128)
  1568                           
  1569                           ;./adc.h: 76:  val5=val3%100;
  1570  004B  3064               	movlw	100
  1571  004C  00F0               	movwf	___lwmod@divisor
  1572  004D  3000               	movlw	0
  1573  004E  00F1               	movwf	___lwmod@divisor+1
  1574  004F  1283               	bcf	3,5	;RP0=0, select bank0
  1575  0050  1303               	bcf	3,6	;RP1=0, select bank0
  1576  0051  086D               	movf	_val3+1,w
  1577  0052  00F3               	movwf	___lwmod@dividend+1
  1578  0053  086C               	movf	_val3,w
  1579  0054  00F2               	movwf	___lwmod@dividend
  1580  0055  120A  158A  2633  120A  118A  	fcall	___lwmod
  1581  005A  0871               	movf	?___lwmod+1,w
  1582  005B  1283               	bcf	3,5	;RP0=0, select bank0
  1583  005C  1303               	bcf	3,6	;RP1=0, select bank0
  1584  005D  00EB               	movwf	_val5+1
  1585  005E  0870               	movf	?___lwmod,w
  1586  005F  00EA               	movwf	_val5
  1587                           
  1588                           ;./adc.h: 77:  val6=val5/10;
  1589  0060  300A               	movlw	10
  1590  0061  00F0               	movwf	___lwdiv@divisor
  1591  0062  3000               	movlw	0
  1592  0063  00F1               	movwf	___lwdiv@divisor+1
  1593  0064  086B               	movf	_val5+1,w
  1594  0065  00F3               	movwf	___lwdiv@dividend+1
  1595  0066  086A               	movf	_val5,w
  1596  0067  00F2               	movwf	___lwdiv@dividend
  1597  0068  120A  158A  26AA  120A  118A  	fcall	___lwdiv
  1598  006D  0871               	movf	?___lwdiv+1,w
  1599  006E  1283               	bcf	3,5	;RP0=0, select bank0
  1600  006F  1303               	bcf	3,6	;RP1=0, select bank0
  1601  0070  00E9               	movwf	_val6+1
  1602  0071  0870               	movf	?___lwdiv,w
  1603  0072  00E8               	movwf	_val6
  1604                           
  1605                           ;./adc.h: 78:  val7=val5%10;
  1606  0073  300A               	movlw	10
  1607  0074  00F0               	movwf	___lwmod@divisor
  1608  0075  3000               	movlw	0
  1609  0076  00F1               	movwf	___lwmod@divisor+1
  1610  0077  086B               	movf	_val5+1,w
  1611  0078  00F3               	movwf	___lwmod@dividend+1
  1612  0079  086A               	movf	_val5,w
  1613  007A  00F2               	movwf	___lwmod@dividend
  1614  007B  120A  158A  2633  120A  118A  	fcall	___lwmod
  1615  0080  0871               	movf	?___lwmod+1,w
  1616  0081  1283               	bcf	3,5	;RP0=0, select bank0
  1617  0082  1303               	bcf	3,6	;RP1=0, select bank0
  1618  0083  00E7               	movwf	_val7+1
  1619  0084  0870               	movf	?___lwmod,w
  1620  0085  00E6               	movwf	_val7
  1621                           
  1622                           ;./adc.h: 79:  lcd_data(val6+0x30);
  1623  0086  0868               	movf	_val6,w
  1624  0087  3E30               	addlw	48
  1625  0088  120A  158A  257E  120A  118A  	fcall	_lcd_data
  1626                           
  1627                           ;./adc.h: 80:  lcd_data(val7+0x30);
  1628  008D  1283               	bcf	3,5	;RP0=0, select bank0
  1629  008E  1303               	bcf	3,6	;RP1=0, select bank0
  1630  008F  0866               	movf	_val7,w
  1631  0090  3E30               	addlw	48
  1632  0091  120A  158A  257E  120A  118A  	fcall	_lcd_data
  1633  0096                     l100:
  1634  0096  0008               	return
  1635  0097                     __end_of_disp_dig2:
  1636                           
  1637                           	psect	text7
  1638  0D7E                     __ptext7:	
  1639 ;; *************** function _lcd_data *****************
  1640 ;; Defined at:
  1641 ;;		line 26 in file "./lcd.h"
  1642 ;; Parameters:    Size  Location     Type
  1643 ;;  data            1    wreg     unsigned char 
  1644 ;; Auto vars:     Size  Location     Type
  1645 ;;  data            1    2[COMMON] unsigned char 
  1646 ;; Return value:  Size  Location     Type
  1647 ;;                  1    wreg      void 
  1648 ;; Registers used:
  1649 ;;		wreg
  1650 ;; Tracked objects:
  1651 ;;		On entry : 0/0
  1652 ;;		On exit  : 0/0
  1653 ;;		Unchanged: 0/0
  1654 ;; Data sizes:     COMMON   BANK0   BANK1   BANK3   BANK2
  1655 ;;      Params:         0       0       0       0       0
  1656 ;;      Locals:         1       0       0       0       0
  1657 ;;      Temps:          2       0       0       0       0
  1658 ;;      Totals:         3       0       0       0       0
  1659 ;;Total ram usage:        3 bytes
  1660 ;; Hardware stack levels used: 1
  1661 ;; This function calls:
  1662 ;;		Nothing
  1663 ;; This function is called by:
  1664 ;;		_lcd_display
  1665 ;;		_disp_dig3
  1666 ;;		_disp_dig2
  1667 ;;		_disp_dig4
  1668 ;; This function uses a non-reentrant model
  1669 ;;
  1670                           
  1671                           
  1672                           ;psect for function _lcd_data
  1673  0D7E                     _lcd_data:
  1674                           
  1675                           ;incstack = 0
  1676                           ; Regs used in _lcd_data: [wreg]
  1677                           ;lcd_data@data stored from wreg
  1678  0D7E  00F2               	movwf	lcd_data@data
  1679  0D7F                     l1272:
  1680                           
  1681                           ;./lcd.h: 26: void lcd_data(unsigned char data);./lcd.h: 27: {;./lcd.h: 28: PORTD=data;
  1682  0D7F  0872               	movf	lcd_data@data,w
  1683  0D80  1283               	bcf	3,5	;RP0=0, select bank0
  1684  0D81  1303               	bcf	3,6	;RP1=0, select bank0
  1685  0D82  0088               	movwf	8	;volatile
  1686  0D83                     l1274:
  1687                           
  1688                           ;./lcd.h: 29: RB4=1;
  1689  0D83  1606               	bsf	6,4	;volatile
  1690  0D84                     l1276:
  1691                           
  1692                           ;./lcd.h: 30: RB5=1;
  1693  0D84  1686               	bsf	6,5	;volatile
  1694                           
  1695                           ;./lcd.h: 31: _delay((unsigned long)((10)*(20000000/4000.0)));
  1696  0D85  3041               	movlw	65
  1697  0D86  00F1               	movwf	??_lcd_data+1
  1698  0D87  30EE               	movlw	238
  1699  0D88  00F0               	movwf	??_lcd_data
  1700  0D89                     u2287:
  1701  0D89  0BF0               	decfsz	??_lcd_data,f
  1702  0D8A  2D89               	goto	u2287
  1703  0D8B  0BF1               	decfsz	??_lcd_data+1,f
  1704  0D8C  2D89               	goto	u2287
  1705  0D8D  0000               	nop
  1706  0D8E                     l1278:
  1707                           
  1708                           ;./lcd.h: 32: RB5=0;
  1709  0D8E  1283               	bcf	3,5	;RP0=0, select bank0
  1710  0D8F  1303               	bcf	3,6	;RP1=0, select bank0
  1711  0D90  1286               	bcf	6,5	;volatile
  1712                           
  1713                           ;./lcd.h: 33: _delay((unsigned long)((10)*(20000000/4000.0)));
  1714  0D91  3041               	movlw	65
  1715  0D92  00F1               	movwf	??_lcd_data+1
  1716  0D93  30EE               	movlw	238
  1717  0D94  00F0               	movwf	??_lcd_data
  1718  0D95                     u2297:
  1719  0D95  0BF0               	decfsz	??_lcd_data,f
  1720  0D96  2D95               	goto	u2297
  1721  0D97  0BF1               	decfsz	??_lcd_data+1,f
  1722  0D98  2D95               	goto	u2297
  1723  0D99  0000               	nop
  1724  0D9A                     l39:
  1725  0D9A  0008               	return
  1726  0D9B                     __end_of_lcd_data:
  1727                           
  1728                           	psect	text8
  1729  0E33                     __ptext8:	
  1730 ;; *************** function ___lwmod *****************
  1731 ;; Defined at:
  1732 ;;		line 5 in file "C:\Program Files\Microchip\xc8\v2.32\pic\sources\c90\common\lwmod.c"
  1733 ;; Parameters:    Size  Location     Type
  1734 ;;  divisor         2    0[COMMON] unsigned int 
  1735 ;;  dividend        2    2[COMMON] unsigned int 
  1736 ;; Auto vars:     Size  Location     Type
  1737 ;;  counter         1    5[COMMON] unsigned char 
  1738 ;; Return value:  Size  Location     Type
  1739 ;;                  2    0[COMMON] unsigned int 
  1740 ;; Registers used:
  1741 ;;		wreg, status,2, status,0
  1742 ;; Tracked objects:
  1743 ;;		On entry : 0/0
  1744 ;;		On exit  : 0/0
  1745 ;;		Unchanged: 0/0
  1746 ;; Data sizes:     COMMON   BANK0   BANK1   BANK3   BANK2
  1747 ;;      Params:         4       0       0       0       0
  1748 ;;      Locals:         1       0       0       0       0
  1749 ;;      Temps:          1       0       0       0       0
  1750 ;;      Totals:         6       0       0       0       0
  1751 ;;Total ram usage:        6 bytes
  1752 ;; Hardware stack levels used: 1
  1753 ;; This function calls:
  1754 ;;		Nothing
  1755 ;; This function is called by:
  1756 ;;		_disp_dig3
  1757 ;;		_disp_dig2
  1758 ;;		_disp_dig4
  1759 ;; This function uses a non-reentrant model
  1760 ;;
  1761                           
  1762                           
  1763                           ;psect for function ___lwmod
  1764  0E33                     ___lwmod:
  1765  0E33                     l1306:	
  1766                           ;incstack = 0
  1767                           ; Regs used in ___lwmod: [wreg+status,2+status,0]
  1768                           
  1769  0E33  0870               	movf	___lwmod@divisor,w
  1770  0E34  0471               	iorwf	___lwmod@divisor+1,w
  1771  0E35  1903               	btfsc	3,2
  1772  0E36  2E38               	goto	u1211
  1773  0E37  2E39               	goto	u1210
  1774  0E38                     u1211:
  1775  0E38  2E68               	goto	l1324
  1776  0E39                     u1210:
  1777  0E39                     l1308:
  1778  0E39  01F5               	clrf	___lwmod@counter
  1779  0E3A  0AF5               	incf	___lwmod@counter,f
  1780  0E3B  2E47               	goto	l1314
  1781  0E3C                     l1310:
  1782  0E3C  3001               	movlw	1
  1783  0E3D                     u1225:
  1784  0E3D  1003               	clrc
  1785  0E3E  0DF0               	rlf	___lwmod@divisor,f
  1786  0E3F  0DF1               	rlf	___lwmod@divisor+1,f
  1787  0E40  3EFF               	addlw	-1
  1788  0E41  1D03               	skipz
  1789  0E42  2E3D               	goto	u1225
  1790  0E43                     l1312:
  1791  0E43  3001               	movlw	1
  1792  0E44  00F4               	movwf	??___lwmod
  1793  0E45  0874               	movf	??___lwmod,w
  1794  0E46  07F5               	addwf	___lwmod@counter,f
  1795  0E47                     l1314:
  1796  0E47  1FF1               	btfss	___lwmod@divisor+1,7
  1797  0E48  2E4A               	goto	u1231
  1798  0E49  2E4B               	goto	u1230
  1799  0E4A                     u1231:
  1800  0E4A  2E3C               	goto	l1310
  1801  0E4B                     u1230:
  1802  0E4B                     l1316:
  1803  0E4B  0871               	movf	___lwmod@divisor+1,w
  1804  0E4C  0273               	subwf	___lwmod@dividend+1,w
  1805  0E4D  1D03               	skipz
  1806  0E4E  2E51               	goto	u1245
  1807  0E4F  0870               	movf	___lwmod@divisor,w
  1808  0E50  0272               	subwf	___lwmod@dividend,w
  1809  0E51                     u1245:
  1810  0E51  1C03               	skipc
  1811  0E52  2E54               	goto	u1241
  1812  0E53  2E55               	goto	u1240
  1813  0E54                     u1241:
  1814  0E54  2E5B               	goto	l1320
  1815  0E55                     u1240:
  1816  0E55                     l1318:
  1817  0E55  0870               	movf	___lwmod@divisor,w
  1818  0E56  02F2               	subwf	___lwmod@dividend,f
  1819  0E57  0871               	movf	___lwmod@divisor+1,w
  1820  0E58  1C03               	skipc
  1821  0E59  03F3               	decf	___lwmod@dividend+1,f
  1822  0E5A  02F3               	subwf	___lwmod@dividend+1,f
  1823  0E5B                     l1320:
  1824  0E5B  3001               	movlw	1
  1825  0E5C                     u1255:
  1826  0E5C  1003               	clrc
  1827  0E5D  0CF1               	rrf	___lwmod@divisor+1,f
  1828  0E5E  0CF0               	rrf	___lwmod@divisor,f
  1829  0E5F  3EFF               	addlw	-1
  1830  0E60  1D03               	skipz
  1831  0E61  2E5C               	goto	u1255
  1832  0E62                     l1322:
  1833  0E62  3001               	movlw	1
  1834  0E63  02F5               	subwf	___lwmod@counter,f
  1835  0E64  1D03               	btfss	3,2
  1836  0E65  2E67               	goto	u1261
  1837  0E66  2E68               	goto	u1260
  1838  0E67                     u1261:
  1839  0E67  2E4B               	goto	l1316
  1840  0E68                     u1260:
  1841  0E68                     l1324:
  1842  0E68  0873               	movf	___lwmod@dividend+1,w
  1843  0E69  00F1               	movwf	?___lwmod+1
  1844  0E6A  0872               	movf	___lwmod@dividend,w
  1845  0E6B  00F0               	movwf	?___lwmod
  1846  0E6C                     l482:
  1847  0E6C  0008               	return
  1848  0E6D                     __end_of___lwmod:
  1849                           
  1850                           	psect	text9
  1851  0EAA                     __ptext9:	
  1852 ;; *************** function ___lwdiv *****************
  1853 ;; Defined at:
  1854 ;;		line 5 in file "C:\Program Files\Microchip\xc8\v2.32\pic\sources\c90\common\lwdiv.c"
  1855 ;; Parameters:    Size  Location     Type
  1856 ;;  divisor         2    0[COMMON] unsigned int 
  1857 ;;  dividend        2    2[COMMON] unsigned int 
  1858 ;; Auto vars:     Size  Location     Type
  1859 ;;  quotient        2    5[COMMON] unsigned int 
  1860 ;;  counter         1    7[COMMON] unsigned char 
  1861 ;; Return value:  Size  Location     Type
  1862 ;;                  2    0[COMMON] unsigned int 
  1863 ;; Registers used:
  1864 ;;		wreg, status,2, status,0
  1865 ;; Tracked objects:
  1866 ;;		On entry : 0/0
  1867 ;;		On exit  : 0/0
  1868 ;;		Unchanged: 0/0
  1869 ;; Data sizes:     COMMON   BANK0   BANK1   BANK3   BANK2
  1870 ;;      Params:         4       0       0       0       0
  1871 ;;      Locals:         3       0       0       0       0
  1872 ;;      Temps:          1       0       0       0       0
  1873 ;;      Totals:         8       0       0       0       0
  1874 ;;Total ram usage:        8 bytes
  1875 ;; Hardware stack levels used: 1
  1876 ;; This function calls:
  1877 ;;		Nothing
  1878 ;; This function is called by:
  1879 ;;		_disp_dig3
  1880 ;;		_disp_dig2
  1881 ;;		_disp_dig4
  1882 ;; This function uses a non-reentrant model
  1883 ;;
  1884                           
  1885                           
  1886                           ;psect for function ___lwdiv
  1887  0EAA                     ___lwdiv:
  1888  0EAA                     l1280:	
  1889                           ;incstack = 0
  1890                           ; Regs used in ___lwdiv: [wreg+status,2+status,0]
  1891                           
  1892  0EAA  01F5               	clrf	___lwdiv@quotient
  1893  0EAB  01F6               	clrf	___lwdiv@quotient+1
  1894  0EAC                     l1282:
  1895  0EAC  0870               	movf	___lwdiv@divisor,w
  1896  0EAD  0471               	iorwf	___lwdiv@divisor+1,w
  1897  0EAE  1903               	btfsc	3,2
  1898  0EAF  2EB1               	goto	u1141
  1899  0EB0  2EB2               	goto	u1140
  1900  0EB1                     u1141:
  1901  0EB1  2EE9               	goto	l1302
  1902  0EB2                     u1140:
  1903  0EB2                     l1284:
  1904  0EB2  01F7               	clrf	___lwdiv@counter
  1905  0EB3  0AF7               	incf	___lwdiv@counter,f
  1906  0EB4  2EC0               	goto	l1290
  1907  0EB5                     l1286:
  1908  0EB5  3001               	movlw	1
  1909  0EB6                     u1155:
  1910  0EB6  1003               	clrc
  1911  0EB7  0DF0               	rlf	___lwdiv@divisor,f
  1912  0EB8  0DF1               	rlf	___lwdiv@divisor+1,f
  1913  0EB9  3EFF               	addlw	-1
  1914  0EBA  1D03               	skipz
  1915  0EBB  2EB6               	goto	u1155
  1916  0EBC                     l1288:
  1917  0EBC  3001               	movlw	1
  1918  0EBD  00F4               	movwf	??___lwdiv
  1919  0EBE  0874               	movf	??___lwdiv,w
  1920  0EBF  07F7               	addwf	___lwdiv@counter,f
  1921  0EC0                     l1290:
  1922  0EC0  1FF1               	btfss	___lwdiv@divisor+1,7
  1923  0EC1  2EC3               	goto	u1161
  1924  0EC2  2EC4               	goto	u1160
  1925  0EC3                     u1161:
  1926  0EC3  2EB5               	goto	l1286
  1927  0EC4                     u1160:
  1928  0EC4                     l1292:
  1929  0EC4  3001               	movlw	1
  1930  0EC5                     u1175:
  1931  0EC5  1003               	clrc
  1932  0EC6  0DF5               	rlf	___lwdiv@quotient,f
  1933  0EC7  0DF6               	rlf	___lwdiv@quotient+1,f
  1934  0EC8  3EFF               	addlw	-1
  1935  0EC9  1D03               	skipz
  1936  0ECA  2EC5               	goto	u1175
  1937  0ECB  0871               	movf	___lwdiv@divisor+1,w
  1938  0ECC  0273               	subwf	___lwdiv@dividend+1,w
  1939  0ECD  1D03               	skipz
  1940  0ECE  2ED1               	goto	u1185
  1941  0ECF  0870               	movf	___lwdiv@divisor,w
  1942  0ED0  0272               	subwf	___lwdiv@dividend,w
  1943  0ED1                     u1185:
  1944  0ED1  1C03               	skipc
  1945  0ED2  2ED4               	goto	u1181
  1946  0ED3  2ED5               	goto	u1180
  1947  0ED4                     u1181:
  1948  0ED4  2EDC               	goto	l1298
  1949  0ED5                     u1180:
  1950  0ED5                     l1294:
  1951  0ED5  0870               	movf	___lwdiv@divisor,w
  1952  0ED6  02F2               	subwf	___lwdiv@dividend,f
  1953  0ED7  0871               	movf	___lwdiv@divisor+1,w
  1954  0ED8  1C03               	skipc
  1955  0ED9  03F3               	decf	___lwdiv@dividend+1,f
  1956  0EDA  02F3               	subwf	___lwdiv@dividend+1,f
  1957  0EDB                     l1296:
  1958  0EDB  1475               	bsf	___lwdiv@quotient,0
  1959  0EDC                     l1298:
  1960  0EDC  3001               	movlw	1
  1961  0EDD                     u1195:
  1962  0EDD  1003               	clrc
  1963  0EDE  0CF1               	rrf	___lwdiv@divisor+1,f
  1964  0EDF  0CF0               	rrf	___lwdiv@divisor,f
  1965  0EE0  3EFF               	addlw	-1
  1966  0EE1  1D03               	skipz
  1967  0EE2  2EDD               	goto	u1195
  1968  0EE3                     l1300:
  1969  0EE3  3001               	movlw	1
  1970  0EE4  02F7               	subwf	___lwdiv@counter,f
  1971  0EE5  1D03               	btfss	3,2
  1972  0EE6  2EE8               	goto	u1201
  1973  0EE7  2EE9               	goto	u1200
  1974  0EE8                     u1201:
  1975  0EE8  2EC4               	goto	l1292
  1976  0EE9                     u1200:
  1977  0EE9                     l1302:
  1978  0EE9  0876               	movf	___lwdiv@quotient+1,w
  1979  0EEA  00F1               	movwf	?___lwdiv+1
  1980  0EEB  0875               	movf	___lwdiv@quotient,w
  1981  0EEC  00F0               	movwf	?___lwdiv
  1982  0EED                     l472:
  1983  0EED  0008               	return
  1984  0EEE                     __end_of___lwdiv:
  1985                           
  1986                           	psect	text10
  1987  01F2                     __ptext10:	
  1988 ;; *************** function ___xxtofl *****************
  1989 ;; Defined at:
  1990 ;;		line 10 in file "C:\Program Files\Microchip\xc8\v2.32\pic\sources\c90\common\xxtofl.c"
  1991 ;; Parameters:    Size  Location     Type
  1992 ;;  sign            1    wreg     unsigned char 
  1993 ;;  val             4    0[COMMON] long 
  1994 ;; Auto vars:     Size  Location     Type
  1995 ;;  sign            1    8[COMMON] unsigned char 
  1996 ;;  arg             4   10[COMMON] unsigned long 
  1997 ;;  exp             1    9[COMMON] unsigned char 
  1998 ;; Return value:  Size  Location     Type
  1999 ;;                  4    0[COMMON] unsigned char 
  2000 ;; Registers used:
  2001 ;;		wreg, status,2, status,0
  2002 ;; Tracked objects:
  2003 ;;		On entry : 0/0
  2004 ;;		On exit  : 0/0
  2005 ;;		Unchanged: 0/0
  2006 ;; Data sizes:     COMMON   BANK0   BANK1   BANK3   BANK2
  2007 ;;      Params:         4       0       0       0       0
  2008 ;;      Locals:         6       0       0       0       0
  2009 ;;      Temps:          4       0       0       0       0
  2010 ;;      Totals:        14       0       0       0       0
  2011 ;;Total ram usage:       14 bytes
  2012 ;; Hardware stack levels used: 1
  2013 ;; This function calls:
  2014 ;;		Nothing
  2015 ;; This function is called by:
  2016 ;;		_volt
  2017 ;;		_temp
  2018 ;; This function uses a non-reentrant model
  2019 ;;
  2020                           
  2021                           
  2022                           ;psect for function ___xxtofl
  2023  01F2                     ___xxtofl:
  2024                           
  2025                           ;incstack = 0
  2026                           ; Regs used in ___xxtofl: [wreg+status,2+status,0]
  2027                           ;___xxtofl@sign stored from wreg
  2028  01F2  00F8               	movwf	___xxtofl@sign
  2029  01F3                     l1708:
  2030  01F3  0878               	movf	___xxtofl@sign,w
  2031  01F4  1903               	btfsc	3,2
  2032  01F5  29F7               	goto	u2131
  2033  01F6  29F8               	goto	u2130
  2034  01F7                     u2131:
  2035  01F7  2A0C               	goto	l1714
  2036  01F8                     u2130:
  2037  01F8                     l1710:
  2038  01F8  1FF3               	btfss	___xxtofl@val+3,7
  2039  01F9  29FB               	goto	u2141
  2040  01FA  29FC               	goto	u2140
  2041  01FB                     u2141:
  2042  01FB  2A0C               	goto	l1714
  2043  01FC                     u2140:
  2044  01FC                     l1712:
  2045  01FC  0970               	comf	___xxtofl@val,w
  2046  01FD  00FA               	movwf	___xxtofl@arg
  2047  01FE  0971               	comf	___xxtofl@val+1,w
  2048  01FF  00FB               	movwf	___xxtofl@arg+1
  2049  0200  0972               	comf	___xxtofl@val+2,w
  2050  0201  00FC               	movwf	___xxtofl@arg+2
  2051  0202  0973               	comf	___xxtofl@val+3,w
  2052  0203  00FD               	movwf	___xxtofl@arg+3
  2053  0204  0AFA               	incf	___xxtofl@arg,f
  2054  0205  1903               	skipnz
  2055  0206  0AFB               	incf	___xxtofl@arg+1,f
  2056  0207  1903               	skipnz
  2057  0208  0AFC               	incf	___xxtofl@arg+2,f
  2058  0209  1903               	skipnz
  2059  020A  0AFD               	incf	___xxtofl@arg+3,f
  2060  020B  2A14               	goto	l633
  2061  020C                     l1714:
  2062  020C  0873               	movf	___xxtofl@val+3,w
  2063  020D  00FD               	movwf	___xxtofl@arg+3
  2064  020E  0872               	movf	___xxtofl@val+2,w
  2065  020F  00FC               	movwf	___xxtofl@arg+2
  2066  0210  0871               	movf	___xxtofl@val+1,w
  2067  0211  00FB               	movwf	___xxtofl@arg+1
  2068  0212  0870               	movf	___xxtofl@val,w
  2069  0213  00FA               	movwf	___xxtofl@arg
  2070  0214                     l633:
  2071  0214  0873               	movf	___xxtofl@val+3,w
  2072  0215  0472               	iorwf	___xxtofl@val+2,w
  2073  0216  0471               	iorwf	___xxtofl@val+1,w
  2074  0217  0470               	iorwf	___xxtofl@val,w
  2075  0218  1D03               	skipz
  2076  0219  2A1B               	goto	u2151
  2077  021A  2A1C               	goto	u2150
  2078  021B                     u2151:
  2079  021B  2A25               	goto	l1720
  2080  021C                     u2150:
  2081  021C                     l1716:
  2082  021C  3000               	movlw	0
  2083  021D  00F3               	movwf	?___xxtofl+3
  2084  021E  3000               	movlw	0
  2085  021F  00F2               	movwf	?___xxtofl+2
  2086  0220  3000               	movlw	0
  2087  0221  00F1               	movwf	?___xxtofl+1
  2088  0222  3000               	movlw	0
  2089  0223  00F0               	movwf	?___xxtofl
  2090  0224  2AAB               	goto	l635
  2091  0225                     l1720:
  2092  0225  3096               	movlw	150
  2093  0226  00F4               	movwf	??___xxtofl
  2094  0227  0874               	movf	??___xxtofl,w
  2095  0228  00F9               	movwf	___xxtofl@exp
  2096  0229  2A37               	goto	l1724
  2097  022A                     l1722:
  2098  022A  3001               	movlw	1
  2099  022B  00F4               	movwf	??___xxtofl
  2100  022C  0874               	movf	??___xxtofl,w
  2101  022D  07F9               	addwf	___xxtofl@exp,f
  2102  022E  3001               	movlw	1
  2103  022F                     u2165:
  2104  022F  1003               	clrc
  2105  0230  0CFD               	rrf	___xxtofl@arg+3,f
  2106  0231  0CFC               	rrf	___xxtofl@arg+2,f
  2107  0232  0CFB               	rrf	___xxtofl@arg+1,f
  2108  0233  0CFA               	rrf	___xxtofl@arg,f
  2109  0234  3EFF               	addlw	-1
  2110  0235  1D03               	skipz
  2111  0236  2A2F               	goto	u2165
  2112  0237                     l1724:
  2113  0237  30FE               	movlw	254
  2114  0238  057D               	andwf	___xxtofl@arg+3,w
  2115  0239  1D03               	btfss	3,2
  2116  023A  2A3C               	goto	u2171
  2117  023B  2A3D               	goto	u2170
  2118  023C                     u2171:
  2119  023C  2A2A               	goto	l1722
  2120  023D                     u2170:
  2121  023D  2A59               	goto	l639
  2122  023E                     l1726:
  2123  023E  3001               	movlw	1
  2124  023F  00F4               	movwf	??___xxtofl
  2125  0240  0874               	movf	??___xxtofl,w
  2126  0241  07F9               	addwf	___xxtofl@exp,f
  2127  0242                     l1728:
  2128  0242  3001               	movlw	1
  2129  0243  07FA               	addwf	___xxtofl@arg,f
  2130  0244  3000               	movlw	0
  2131  0245  1803               	skipnc
  2132  0246  3001               	movlw	1
  2133  0247  07FB               	addwf	___xxtofl@arg+1,f
  2134  0248  3000               	movlw	0
  2135  0249  1803               	skipnc
  2136  024A  3001               	movlw	1
  2137  024B  07FC               	addwf	___xxtofl@arg+2,f
  2138  024C  3000               	movlw	0
  2139  024D  1803               	skipnc
  2140  024E  3001               	movlw	1
  2141  024F  07FD               	addwf	___xxtofl@arg+3,f
  2142  0250                     l1730:
  2143  0250  3001               	movlw	1
  2144  0251                     u2185:
  2145  0251  1003               	clrc
  2146  0252  0CFD               	rrf	___xxtofl@arg+3,f
  2147  0253  0CFC               	rrf	___xxtofl@arg+2,f
  2148  0254  0CFB               	rrf	___xxtofl@arg+1,f
  2149  0255  0CFA               	rrf	___xxtofl@arg,f
  2150  0256  3EFF               	addlw	-1
  2151  0257  1D03               	skipz
  2152  0258  2A51               	goto	u2185
  2153  0259                     l639:
  2154  0259  30FF               	movlw	255
  2155  025A  057D               	andwf	___xxtofl@arg+3,w
  2156  025B  1D03               	btfss	3,2
  2157  025C  2A5E               	goto	u2191
  2158  025D  2A5F               	goto	u2190
  2159  025E                     u2191:
  2160  025E  2A3E               	goto	l1726
  2161  025F                     u2190:
  2162  025F  2A6B               	goto	l1734
  2163  0260                     l1732:
  2164  0260  3001               	movlw	1
  2165  0261  02F9               	subwf	___xxtofl@exp,f
  2166  0262  3001               	movlw	1
  2167  0263  00F4               	movwf	??___xxtofl
  2168  0264                     u2205:
  2169  0264  1003               	clrc
  2170  0265  0DFA               	rlf	___xxtofl@arg,f
  2171  0266  0DFB               	rlf	___xxtofl@arg+1,f
  2172  0267  0DFC               	rlf	___xxtofl@arg+2,f
  2173  0268  0DFD               	rlf	___xxtofl@arg+3,f
  2174  0269  0BF4               	decfsz	??___xxtofl,f
  2175  026A  2A64               	goto	u2205
  2176  026B                     l1734:
  2177  026B  1BFC               	btfsc	___xxtofl@arg+2,7
  2178  026C  2A6E               	goto	u2211
  2179  026D  2A6F               	goto	u2210
  2180  026E                     u2211:
  2181  026E  2A75               	goto	l646
  2182  026F                     u2210:
  2183  026F                     l1736:
  2184  026F  3002               	movlw	2
  2185  0270  0279               	subwf	___xxtofl@exp,w
  2186  0271  1803               	skipnc
  2187  0272  2A74               	goto	u2221
  2188  0273  2A75               	goto	u2220
  2189  0274                     u2221:
  2190  0274  2A60               	goto	l1732
  2191  0275                     u2220:
  2192  0275                     l646:
  2193  0275  1879               	btfsc	___xxtofl@exp,0
  2194  0276  2A78               	goto	u2231
  2195  0277  2A79               	goto	u2230
  2196  0278                     u2231:
  2197  0278  2A81               	goto	l647
  2198  0279                     u2230:
  2199  0279                     l1738:
  2200  0279  30FF               	movlw	255
  2201  027A  05FA               	andwf	___xxtofl@arg,f
  2202  027B  30FF               	movlw	255
  2203  027C  05FB               	andwf	___xxtofl@arg+1,f
  2204  027D  307F               	movlw	127
  2205  027E  05FC               	andwf	___xxtofl@arg+2,f
  2206  027F  30FF               	movlw	255
  2207  0280  05FD               	andwf	___xxtofl@arg+3,f
  2208  0281                     l647:
  2209  0281  1003               	clrc
  2210  0282  0CF9               	rrf	___xxtofl@exp,f
  2211  0283                     l1740:
  2212  0283  0879               	movf	___xxtofl@exp,w
  2213  0284  00F4               	movwf	??___xxtofl
  2214  0285  01F5               	clrf	??___xxtofl+1
  2215  0286  01F6               	clrf	??___xxtofl+2
  2216  0287  01F7               	clrf	??___xxtofl+3
  2217  0288  3018               	movlw	24
  2218  0289                     u2245:
  2219  0289  1003               	clrc
  2220  028A  0DF4               	rlf	??___xxtofl,f
  2221  028B  0DF5               	rlf	??___xxtofl+1,f
  2222  028C  0DF6               	rlf	??___xxtofl+2,f
  2223  028D  0DF7               	rlf	??___xxtofl+3,f
  2224  028E                     u2240:
  2225  028E  3EFF               	addlw	-1
  2226  028F  1D03               	skipz
  2227  0290  2A89               	goto	u2245
  2228  0291  0874               	movf	??___xxtofl,w
  2229  0292  04FA               	iorwf	___xxtofl@arg,f
  2230  0293  0875               	movf	??___xxtofl+1,w
  2231  0294  04FB               	iorwf	___xxtofl@arg+1,f
  2232  0295  0876               	movf	??___xxtofl+2,w
  2233  0296  04FC               	iorwf	___xxtofl@arg+2,f
  2234  0297  0877               	movf	??___xxtofl+3,w
  2235  0298  04FD               	iorwf	___xxtofl@arg+3,f
  2236  0299                     l1742:
  2237  0299  0878               	movf	___xxtofl@sign,w
  2238  029A  1903               	btfsc	3,2
  2239  029B  2A9D               	goto	u2251
  2240  029C  2A9E               	goto	u2250
  2241  029D                     u2251:
  2242  029D  2AA3               	goto	l1748
  2243  029E                     u2250:
  2244  029E                     l1744:
  2245  029E  1FF3               	btfss	___xxtofl@val+3,7
  2246  029F  2AA1               	goto	u2261
  2247  02A0  2AA2               	goto	u2260
  2248  02A1                     u2261:
  2249  02A1  2AA3               	goto	l1748
  2250  02A2                     u2260:
  2251  02A2                     l1746:
  2252  02A2  17FD               	bsf	___xxtofl@arg+3,7
  2253  02A3                     l1748:
  2254  02A3  087D               	movf	___xxtofl@arg+3,w
  2255  02A4  00F3               	movwf	?___xxtofl+3
  2256  02A5  087C               	movf	___xxtofl@arg+2,w
  2257  02A6  00F2               	movwf	?___xxtofl+2
  2258  02A7  087B               	movf	___xxtofl@arg+1,w
  2259  02A8  00F1               	movwf	?___xxtofl+1
  2260  02A9  087A               	movf	___xxtofl@arg,w
  2261  02AA  00F0               	movwf	?___xxtofl
  2262  02AB                     l635:
  2263  02AB  0008               	return
  2264  02AC                     __end_of___xxtofl:
  2265                           
  2266                           	psect	text11
  2267  0EEE                     __ptext11:	
  2268 ;; *************** function ___fltol *****************
  2269 ;; Defined at:
  2270 ;;		line 43 in file "C:\Program Files\Microchip\xc8\v2.32\pic\sources\c90\common\fltol.c"
  2271 ;; Parameters:    Size  Location     Type
  2272 ;;  f1              4   52[BANK0 ] unsigned char 
  2273 ;; Auto vars:     Size  Location     Type
  2274 ;;  exp1            1   62[BANK0 ] unsigned char 
  2275 ;;  sign1           1   61[BANK0 ] unsigned char 
  2276 ;; Return value:  Size  Location     Type
  2277 ;;                  4   52[BANK0 ] long 
  2278 ;; Registers used:
  2279 ;;		wreg, status,2, status,0
  2280 ;; Tracked objects:
  2281 ;;		On entry : 0/0
  2282 ;;		On exit  : 0/0
  2283 ;;		Unchanged: 0/0
  2284 ;; Data sizes:     COMMON   BANK0   BANK1   BANK3   BANK2
  2285 ;;      Params:         0       4       0       0       0
  2286 ;;      Locals:         0       2       0       0       0
  2287 ;;      Temps:          0       5       0       0       0
  2288 ;;      Totals:         0      11       0       0       0
  2289 ;;Total ram usage:       11 bytes
  2290 ;; Hardware stack levels used: 1
  2291 ;; This function calls:
  2292 ;;		Nothing
  2293 ;; This function is called by:
  2294 ;;		_volt
  2295 ;;		_temp
  2296 ;; This function uses a non-reentrant model
  2297 ;;
  2298                           
  2299                           
  2300                           ;psect for function ___fltol
  2301  0EEE                     ___fltol:
  2302  0EEE                     l1390:	
  2303                           ;incstack = 0
  2304                           ; Regs used in ___fltol: [wreg+status,2+status,0]
  2305                           
  2306  0EEE  1003               	clrc
  2307  0EEF  1283               	bcf	3,5	;RP0=0, select bank0
  2308  0EF0  1303               	bcf	3,6	;RP1=0, select bank0
  2309  0EF1  0D56               	rlf	___fltol@f1+2,w
  2310  0EF2  0D57               	rlf	___fltol@f1+3,w
  2311  0EF3  00D8               	movwf	??___fltol
  2312  0EF4  0858               	movf	??___fltol,w
  2313  0EF5  00DE               	movwf	___fltol@exp1
  2314  0EF6  085E               	movf	___fltol@exp1,w
  2315  0EF7  1D03               	btfss	3,2
  2316  0EF8  2EFA               	goto	u1371
  2317  0EF9  2EFB               	goto	u1370
  2318  0EFA                     u1371:
  2319  0EFA  2F04               	goto	l1396
  2320  0EFB                     u1370:
  2321  0EFB                     l1392:
  2322  0EFB  3000               	movlw	0
  2323  0EFC  00D7               	movwf	?___fltol+3
  2324  0EFD  3000               	movlw	0
  2325  0EFE  00D6               	movwf	?___fltol+2
  2326  0EFF  3000               	movlw	0
  2327  0F00  00D5               	movwf	?___fltol+1
  2328  0F01  3000               	movlw	0
  2329  0F02  00D4               	movwf	?___fltol
  2330  0F03  2F69               	goto	l386
  2331  0F04                     l1396:
  2332  0F04  0854               	movf	___fltol@f1,w
  2333  0F05  00D8               	movwf	??___fltol
  2334  0F06  0855               	movf	___fltol@f1+1,w
  2335  0F07  00D9               	movwf	??___fltol+1
  2336  0F08  0856               	movf	___fltol@f1+2,w
  2337  0F09  00DA               	movwf	??___fltol+2
  2338  0F0A  0857               	movf	___fltol@f1+3,w
  2339  0F0B  00DB               	movwf	??___fltol+3
  2340  0F0C  301F               	movlw	31
  2341  0F0D                     u1385:
  2342  0F0D  1003               	clrc
  2343  0F0E  0CDB               	rrf	??___fltol+3,f
  2344  0F0F  0CDA               	rrf	??___fltol+2,f
  2345  0F10  0CD9               	rrf	??___fltol+1,f
  2346  0F11  0CD8               	rrf	??___fltol,f
  2347  0F12                     u1380:
  2348  0F12  3EFF               	addlw	-1
  2349  0F13  1D03               	skipz
  2350  0F14  2F0D               	goto	u1385
  2351  0F15  0858               	movf	??___fltol,w
  2352  0F16  00DC               	movwf	??___fltol+4
  2353  0F17  085C               	movf	??___fltol+4,w
  2354  0F18  00DD               	movwf	___fltol@sign1
  2355  0F19                     l1398:
  2356  0F19  17D6               	bsf	___fltol@f1+2,7
  2357  0F1A                     l1400:
  2358  0F1A  30FF               	movlw	255
  2359  0F1B  05D4               	andwf	___fltol@f1,f
  2360  0F1C  30FF               	movlw	255
  2361  0F1D  05D5               	andwf	___fltol@f1+1,f
  2362  0F1E  30FF               	movlw	255
  2363  0F1F  05D6               	andwf	___fltol@f1+2,f
  2364  0F20  3000               	movlw	0
  2365  0F21  05D7               	andwf	___fltol@f1+3,f
  2366  0F22                     l1402:
  2367  0F22  3096               	movlw	150
  2368  0F23  02DE               	subwf	___fltol@exp1,f
  2369  0F24                     l1404:
  2370  0F24  1FDE               	btfss	___fltol@exp1,7
  2371  0F25  2F27               	goto	u1391
  2372  0F26  2F28               	goto	u1390
  2373  0F27                     u1391:
  2374  0F27  2F42               	goto	l1414
  2375  0F28                     u1390:
  2376  0F28                     l1406:
  2377  0F28  085E               	movf	___fltol@exp1,w
  2378  0F29  3A80               	xorlw	128
  2379  0F2A  3E97               	addlw	151
  2380  0F2B  1803               	skipnc
  2381  0F2C  2F2E               	goto	u1401
  2382  0F2D  2F2F               	goto	u1400
  2383  0F2E                     u1401:
  2384  0F2E  2F30               	goto	l1412
  2385  0F2F                     u1400:
  2386  0F2F  2EFB               	goto	l1392
  2387  0F30                     l1412:
  2388  0F30  3001               	movlw	1
  2389  0F31                     u1415:
  2390  0F31  1003               	clrc
  2391  0F32  0CD7               	rrf	___fltol@f1+3,f
  2392  0F33  0CD6               	rrf	___fltol@f1+2,f
  2393  0F34  0CD5               	rrf	___fltol@f1+1,f
  2394  0F35  0CD4               	rrf	___fltol@f1,f
  2395  0F36  3EFF               	addlw	-1
  2396  0F37  1D03               	skipz
  2397  0F38  2F31               	goto	u1415
  2398  0F39  3001               	movlw	1
  2399  0F3A  00D8               	movwf	??___fltol
  2400  0F3B  0858               	movf	??___fltol,w
  2401  0F3C  07DE               	addwf	___fltol@exp1,f
  2402  0F3D  1D03               	btfss	3,2
  2403  0F3E  2F40               	goto	u1421
  2404  0F3F  2F41               	goto	u1420
  2405  0F40                     u1421:
  2406  0F40  2F30               	goto	l1412
  2407  0F41                     u1420:
  2408  0F41  2F59               	goto	l1422
  2409  0F42                     l1414:
  2410  0F42  3020               	movlw	32
  2411  0F43  025E               	subwf	___fltol@exp1,w
  2412  0F44  1C03               	skipc
  2413  0F45  2F47               	goto	u1431
  2414  0F46  2F48               	goto	u1430
  2415  0F47                     u1431:
  2416  0F47  2F54               	goto	l393
  2417  0F48                     u1430:
  2418  0F48  2EFB               	goto	l1392
  2419  0F49                     l1420:
  2420  0F49  3001               	movlw	1
  2421  0F4A  00D8               	movwf	??___fltol
  2422  0F4B                     u1445:
  2423  0F4B  1003               	clrc
  2424  0F4C  0DD4               	rlf	___fltol@f1,f
  2425  0F4D  0DD5               	rlf	___fltol@f1+1,f
  2426  0F4E  0DD6               	rlf	___fltol@f1+2,f
  2427  0F4F  0DD7               	rlf	___fltol@f1+3,f
  2428  0F50  0BD8               	decfsz	??___fltol,f
  2429  0F51  2F4B               	goto	u1445
  2430  0F52  3001               	movlw	1
  2431  0F53  02DE               	subwf	___fltol@exp1,f
  2432  0F54                     l393:
  2433  0F54  085E               	movf	___fltol@exp1,w
  2434  0F55  1D03               	btfss	3,2
  2435  0F56  2F58               	goto	u1451
  2436  0F57  2F59               	goto	u1450
  2437  0F58                     u1451:
  2438  0F58  2F49               	goto	l1420
  2439  0F59                     u1450:
  2440  0F59                     l1422:
  2441  0F59  085D               	movf	___fltol@sign1,w
  2442  0F5A  1903               	btfsc	3,2
  2443  0F5B  2F5D               	goto	u1461
  2444  0F5C  2F5E               	goto	u1460
  2445  0F5D                     u1461:
  2446  0F5D  2F69               	goto	l396
  2447  0F5E                     u1460:
  2448  0F5E                     l1424:
  2449  0F5E  09D4               	comf	___fltol@f1,f
  2450  0F5F  09D5               	comf	___fltol@f1+1,f
  2451  0F60  09D6               	comf	___fltol@f1+2,f
  2452  0F61  09D7               	comf	___fltol@f1+3,f
  2453  0F62  0AD4               	incf	___fltol@f1,f
  2454  0F63  1903               	skipnz
  2455  0F64  0AD5               	incf	___fltol@f1+1,f
  2456  0F65  1903               	skipnz
  2457  0F66  0AD6               	incf	___fltol@f1+2,f
  2458  0F67  1903               	skipnz
  2459  0F68  0AD7               	incf	___fltol@f1+3,f
  2460  0F69                     l396:
  2461  0F69                     l386:
  2462  0F69  0008               	return
  2463  0F6A                     __end_of___fltol:
  2464                           
  2465                           	psect	text12
  2466  0489                     __ptext12:	
  2467 ;; *************** function ___flmul *****************
  2468 ;; Defined at:
  2469 ;;		line 8 in file "C:\Program Files\Microchip\xc8\v2.32\pic\sources\c90\common\sprcmul.c"
  2470 ;; Parameters:    Size  Location     Type
  2471 ;;  b               4   26[BANK0 ] long 
  2472 ;;  a               4   30[BANK0 ] long 
  2473 ;; Auto vars:     Size  Location     Type
  2474 ;;  prod            4   46[BANK0 ] struct .
  2475 ;;  grs             4   40[BANK0 ] unsigned long 
  2476 ;;  temp            2   50[BANK0 ] struct .
  2477 ;;  bexp            1   45[BANK0 ] unsigned char 
  2478 ;;  aexp            1   44[BANK0 ] unsigned char 
  2479 ;;  sign            1   39[BANK0 ] unsigned char 
  2480 ;; Return value:  Size  Location     Type
  2481 ;;                  4   26[BANK0 ] unsigned char 
  2482 ;; Registers used:
  2483 ;;		wreg, status,2, status,0, btemp+1, pclath, cstack
  2484 ;; Tracked objects:
  2485 ;;		On entry : 0/0
  2486 ;;		On exit  : 0/0
  2487 ;;		Unchanged: 0/0
  2488 ;; Data sizes:     COMMON   BANK0   BANK1   BANK3   BANK2
  2489 ;;      Params:         0       8       0       0       0
  2490 ;;      Locals:         0      13       0       0       0
  2491 ;;      Temps:          0       5       0       0       0
  2492 ;;      Totals:         0      26       0       0       0
  2493 ;;Total ram usage:       26 bytes
  2494 ;; Hardware stack levels used: 1
  2495 ;; Hardware stack levels required when called: 1
  2496 ;; This function calls:
  2497 ;;		__Umul8_16
  2498 ;; This function is called by:
  2499 ;;		_volt
  2500 ;;		_temp
  2501 ;; This function uses a non-reentrant model
  2502 ;;
  2503                           
  2504                           
  2505                           ;psect for function ___flmul
  2506  0489                     ___flmul:
  2507  0489                     l1568:	
  2508                           ;incstack = 0
  2509                           ; Regs used in ___flmul: [wreg+status,2+status,0+btemp+1+pclath+cstack]
  2510                           
  2511  0489  1283               	bcf	3,5	;RP0=0, select bank0
  2512  048A  1303               	bcf	3,6	;RP1=0, select bank0
  2513  048B  083D               	movf	___flmul@b+3,w
  2514  048C  3980               	andlw	128
  2515  048D  00C2               	movwf	??___flmul
  2516  048E  0842               	movf	??___flmul,w
  2517  048F  00C7               	movwf	___flmul@sign
  2518  0490                     l1570:
  2519  0490  083D               	movf	___flmul@b+3,w
  2520  0491  00C2               	movwf	??___flmul
  2521  0492  0742               	addwf	??___flmul,w
  2522  0493  00C3               	movwf	??___flmul+1
  2523  0494  0843               	movf	??___flmul+1,w
  2524  0495  00CD               	movwf	___flmul@bexp
  2525  0496                     l1572:
  2526  0496  1FBC               	btfss	___flmul@b+2,7
  2527  0497  2C99               	goto	u1761
  2528  0498  2C9A               	goto	u1760
  2529  0499                     u1761:
  2530  0499  2C9B               	goto	l1576
  2531  049A                     u1760:
  2532  049A                     l1574:
  2533  049A  144D               	bsf	___flmul@bexp,0
  2534  049B                     l1576:
  2535  049B  084D               	movf	___flmul@bexp,w
  2536  049C  1903               	btfsc	3,2
  2537  049D  2C9F               	goto	u1771
  2538  049E  2CA0               	goto	u1770
  2539  049F                     u1771:
  2540  049F  2CAF               	goto	l1584
  2541  04A0                     u1770:
  2542  04A0                     l1578:
  2543  04A0  0A4D               	incf	___flmul@bexp,w
  2544  04A1  1D03               	btfss	3,2
  2545  04A2  2CA4               	goto	u1781
  2546  04A3  2CA5               	goto	u1780
  2547  04A4                     u1781:
  2548  04A4  2CAD               	goto	l1582
  2549  04A5                     u1780:
  2550  04A5                     l1580:
  2551  04A5  3000               	movlw	0
  2552  04A6  00BD               	movwf	___flmul@b+3
  2553  04A7  3000               	movlw	0
  2554  04A8  00BC               	movwf	___flmul@b+2
  2555  04A9  3000               	movlw	0
  2556  04AA  00BB               	movwf	___flmul@b+1
  2557  04AB  3000               	movlw	0
  2558  04AC  00BA               	movwf	___flmul@b
  2559  04AD                     l1582:
  2560  04AD  17BC               	bsf	___flmul@b+2,7
  2561  04AE  2CB7               	goto	l1586
  2562  04AF                     l1584:
  2563  04AF  3000               	movlw	0
  2564  04B0  00BD               	movwf	___flmul@b+3
  2565  04B1  3000               	movlw	0
  2566  04B2  00BC               	movwf	___flmul@b+2
  2567  04B3  3000               	movlw	0
  2568  04B4  00BB               	movwf	___flmul@b+1
  2569  04B5  3000               	movlw	0
  2570  04B6  00BA               	movwf	___flmul@b
  2571  04B7                     l1586:
  2572  04B7  0841               	movf	___flmul@a+3,w
  2573  04B8  3980               	andlw	128
  2574  04B9  00C2               	movwf	??___flmul
  2575  04BA  0842               	movf	??___flmul,w
  2576  04BB  06C7               	xorwf	___flmul@sign,f
  2577  04BC                     l1588:
  2578  04BC  0841               	movf	___flmul@a+3,w
  2579  04BD  00C2               	movwf	??___flmul
  2580  04BE  0742               	addwf	??___flmul,w
  2581  04BF  00C3               	movwf	??___flmul+1
  2582  04C0  0843               	movf	??___flmul+1,w
  2583  04C1  00CC               	movwf	___flmul@aexp
  2584  04C2                     l1590:
  2585  04C2  1FC0               	btfss	___flmul@a+2,7
  2586  04C3  2CC5               	goto	u1791
  2587  04C4  2CC6               	goto	u1790
  2588  04C5                     u1791:
  2589  04C5  2CC7               	goto	l1594
  2590  04C6                     u1790:
  2591  04C6                     l1592:
  2592  04C6  144C               	bsf	___flmul@aexp,0
  2593  04C7                     l1594:
  2594  04C7  084C               	movf	___flmul@aexp,w
  2595  04C8  1903               	btfsc	3,2
  2596  04C9  2CCB               	goto	u1801
  2597  04CA  2CCC               	goto	u1800
  2598  04CB                     u1801:
  2599  04CB  2CDB               	goto	l1602
  2600  04CC                     u1800:
  2601  04CC                     l1596:
  2602  04CC  0A4C               	incf	___flmul@aexp,w
  2603  04CD  1D03               	btfss	3,2
  2604  04CE  2CD0               	goto	u1811
  2605  04CF  2CD1               	goto	u1810
  2606  04D0                     u1811:
  2607  04D0  2CD9               	goto	l1600
  2608  04D1                     u1810:
  2609  04D1                     l1598:
  2610  04D1  3000               	movlw	0
  2611  04D2  00C1               	movwf	___flmul@a+3
  2612  04D3  3000               	movlw	0
  2613  04D4  00C0               	movwf	___flmul@a+2
  2614  04D5  3000               	movlw	0
  2615  04D6  00BF               	movwf	___flmul@a+1
  2616  04D7  3000               	movlw	0
  2617  04D8  00BE               	movwf	___flmul@a
  2618  04D9                     l1600:
  2619  04D9  17C0               	bsf	___flmul@a+2,7
  2620  04DA  2CE3               	goto	l1604
  2621  04DB                     l1602:
  2622  04DB  3000               	movlw	0
  2623  04DC  00C1               	movwf	___flmul@a+3
  2624  04DD  3000               	movlw	0
  2625  04DE  00C0               	movwf	___flmul@a+2
  2626  04DF  3000               	movlw	0
  2627  04E0  00BF               	movwf	___flmul@a+1
  2628  04E1  3000               	movlw	0
  2629  04E2  00BE               	movwf	___flmul@a
  2630  04E3                     l1604:
  2631  04E3  084C               	movf	___flmul@aexp,w
  2632  04E4  1903               	btfsc	3,2
  2633  04E5  2CE7               	goto	u1821
  2634  04E6  2CE8               	goto	u1820
  2635  04E7                     u1821:
  2636  04E7  2CED               	goto	l1608
  2637  04E8                     u1820:
  2638  04E8                     l1606:
  2639  04E8  084D               	movf	___flmul@bexp,w
  2640  04E9  1D03               	btfss	3,2
  2641  04EA  2CEC               	goto	u1831
  2642  04EB  2CED               	goto	u1830
  2643  04EC                     u1831:
  2644  04EC  2CF6               	goto	l1612
  2645  04ED                     u1830:
  2646  04ED                     l1608:
  2647  04ED  3000               	movlw	0
  2648  04EE  00BD               	movwf	?___flmul+3
  2649  04EF  3000               	movlw	0
  2650  04F0  00BC               	movwf	?___flmul+2
  2651  04F1  3000               	movlw	0
  2652  04F2  00BB               	movwf	?___flmul+1
  2653  04F3  3000               	movlw	0
  2654  04F4  00BA               	movwf	?___flmul
  2655  04F5  2FE9               	goto	l589
  2656  04F6                     l1612:
  2657  04F6  083A               	movf	___flmul@b,w
  2658  04F7  00C2               	movwf	??___flmul
  2659  04F8  0842               	movf	??___flmul,w
  2660  04F9  00F0               	movwf	__Umul8_16@multiplicand
  2661  04FA  0840               	movf	___flmul@a+2,w
  2662  04FB  120A  158A  25E5  120A  118A  	fcall	__Umul8_16
  2663  0500  0871               	movf	?__Umul8_16+1,w
  2664  0501  1283               	bcf	3,5	;RP0=0, select bank0
  2665  0502  1303               	bcf	3,6	;RP1=0, select bank0
  2666  0503  00D3               	movwf	___flmul@temp+1
  2667  0504  0870               	movf	?__Umul8_16,w
  2668  0505  00D2               	movwf	___flmul@temp
  2669  0506                     l1614:
  2670  0506  0852               	movf	___flmul@temp,w
  2671  0507  00C2               	movwf	??___flmul
  2672  0508  01C3               	clrf	??___flmul+1
  2673  0509  01C4               	clrf	??___flmul+2
  2674  050A  01C5               	clrf	??___flmul+3
  2675  050B  0845               	movf	??___flmul+3,w
  2676  050C  00CB               	movwf	___flmul@grs+3
  2677  050D  0844               	movf	??___flmul+2,w
  2678  050E  00CA               	movwf	___flmul@grs+2
  2679  050F  0843               	movf	??___flmul+1,w
  2680  0510  00C9               	movwf	___flmul@grs+1
  2681  0511  0842               	movf	??___flmul,w
  2682  0512  00C8               	movwf	___flmul@grs
  2683  0513                     l1616:
  2684  0513  0853               	movf	___flmul@temp+1,w
  2685  0514  00C2               	movwf	??___flmul
  2686  0515  01C3               	clrf	??___flmul+1
  2687  0516  01C4               	clrf	??___flmul+2
  2688  0517  01C5               	clrf	??___flmul+3
  2689  0518  0845               	movf	??___flmul+3,w
  2690  0519  00D1               	movwf	___flmul@prod+3
  2691  051A  0844               	movf	??___flmul+2,w
  2692  051B  00D0               	movwf	___flmul@prod+2
  2693  051C  0843               	movf	??___flmul+1,w
  2694  051D  00CF               	movwf	___flmul@prod+1
  2695  051E  0842               	movf	??___flmul,w
  2696  051F  00CE               	movwf	___flmul@prod
  2697  0520  083B               	movf	___flmul@b+1,w
  2698  0521  00C2               	movwf	??___flmul
  2699  0522  0842               	movf	??___flmul,w
  2700  0523  00F0               	movwf	__Umul8_16@multiplicand
  2701  0524  083F               	movf	___flmul@a+1,w
  2702  0525  120A  158A  25E5  120A  118A  	fcall	__Umul8_16
  2703  052A  0871               	movf	?__Umul8_16+1,w
  2704  052B  1283               	bcf	3,5	;RP0=0, select bank0
  2705  052C  1303               	bcf	3,6	;RP1=0, select bank0
  2706  052D  00D3               	movwf	___flmul@temp+1
  2707  052E  0870               	movf	?__Umul8_16,w
  2708  052F  00D2               	movwf	___flmul@temp
  2709  0530                     l1618:
  2710  0530  0852               	movf	___flmul@temp,w
  2711  0531  00C2               	movwf	??___flmul
  2712  0532  01C3               	clrf	??___flmul+1
  2713  0533  01C4               	clrf	??___flmul+2
  2714  0534  01C5               	clrf	??___flmul+3
  2715  0535  0842               	movf	??___flmul,w
  2716  0536  07C8               	addwf	___flmul@grs,f
  2717  0537  0843               	movf	??___flmul+1,w
  2718  0538  1103               	clrz
  2719  0539  1803               	skipnc
  2720  053A  3E01               	addlw	1
  2721  053B  1903               	skipnz
  2722  053C  2D3E               	goto	u1841
  2723  053D  07C9               	addwf	___flmul@grs+1,f
  2724  053E                     u1841:
  2725  053E  0844               	movf	??___flmul+2,w
  2726  053F  1103               	clrz
  2727  0540  1803               	skipnc
  2728  0541  3E01               	addlw	1
  2729  0542  1903               	skipnz
  2730  0543  2D45               	goto	u1842
  2731  0544  07CA               	addwf	___flmul@grs+2,f
  2732  0545                     u1842:
  2733  0545  0845               	movf	??___flmul+3,w
  2734  0546  1103               	clrz
  2735  0547  1803               	skipnc
  2736  0548  3E01               	addlw	1
  2737  0549  1903               	skipnz
  2738  054A  2D4C               	goto	u1843
  2739  054B  07CB               	addwf	___flmul@grs+3,f
  2740  054C                     u1843:
  2741  054C                     l1620:
  2742  054C  0853               	movf	___flmul@temp+1,w
  2743  054D  00C2               	movwf	??___flmul
  2744  054E  01C3               	clrf	??___flmul+1
  2745  054F  01C4               	clrf	??___flmul+2
  2746  0550  01C5               	clrf	??___flmul+3
  2747  0551  0842               	movf	??___flmul,w
  2748  0552  07CE               	addwf	___flmul@prod,f
  2749  0553  0843               	movf	??___flmul+1,w
  2750  0554  1103               	clrz
  2751  0555  1803               	skipnc
  2752  0556  3E01               	addlw	1
  2753  0557  1903               	skipnz
  2754  0558  2D5A               	goto	u1851
  2755  0559  07CF               	addwf	___flmul@prod+1,f
  2756  055A                     u1851:
  2757  055A  0844               	movf	??___flmul+2,w
  2758  055B  1103               	clrz
  2759  055C  1803               	skipnc
  2760  055D  3E01               	addlw	1
  2761  055E  1903               	skipnz
  2762  055F  2D61               	goto	u1852
  2763  0560  07D0               	addwf	___flmul@prod+2,f
  2764  0561                     u1852:
  2765  0561  0845               	movf	??___flmul+3,w
  2766  0562  1103               	clrz
  2767  0563  1803               	skipnc
  2768  0564  3E01               	addlw	1
  2769  0565  1903               	skipnz
  2770  0566  2D68               	goto	u1853
  2771  0567  07D1               	addwf	___flmul@prod+3,f
  2772  0568                     u1853:
  2773  0568  083C               	movf	___flmul@b+2,w
  2774  0569  00C2               	movwf	??___flmul
  2775  056A  0842               	movf	??___flmul,w
  2776  056B  00F0               	movwf	__Umul8_16@multiplicand
  2777  056C  083E               	movf	___flmul@a,w
  2778  056D  120A  158A  25E5  120A  118A  	fcall	__Umul8_16
  2779  0572  0871               	movf	?__Umul8_16+1,w
  2780  0573  1283               	bcf	3,5	;RP0=0, select bank0
  2781  0574  1303               	bcf	3,6	;RP1=0, select bank0
  2782  0575  00D3               	movwf	___flmul@temp+1
  2783  0576  0870               	movf	?__Umul8_16,w
  2784  0577  00D2               	movwf	___flmul@temp
  2785  0578                     l1622:
  2786  0578  0852               	movf	___flmul@temp,w
  2787  0579  00C2               	movwf	??___flmul
  2788  057A  01C3               	clrf	??___flmul+1
  2789  057B  01C4               	clrf	??___flmul+2
  2790  057C  01C5               	clrf	??___flmul+3
  2791  057D  0842               	movf	??___flmul,w
  2792  057E  07C8               	addwf	___flmul@grs,f
  2793  057F  0843               	movf	??___flmul+1,w
  2794  0580  1103               	clrz
  2795  0581  1803               	skipnc
  2796  0582  3E01               	addlw	1
  2797  0583  1903               	skipnz
  2798  0584  2D86               	goto	u1861
  2799  0585  07C9               	addwf	___flmul@grs+1,f
  2800  0586                     u1861:
  2801  0586  0844               	movf	??___flmul+2,w
  2802  0587  1103               	clrz
  2803  0588  1803               	skipnc
  2804  0589  3E01               	addlw	1
  2805  058A  1903               	skipnz
  2806  058B  2D8D               	goto	u1862
  2807  058C  07CA               	addwf	___flmul@grs+2,f
  2808  058D                     u1862:
  2809  058D  0845               	movf	??___flmul+3,w
  2810  058E  1103               	clrz
  2811  058F  1803               	skipnc
  2812  0590  3E01               	addlw	1
  2813  0591  1903               	skipnz
  2814  0592  2D94               	goto	u1863
  2815  0593  07CB               	addwf	___flmul@grs+3,f
  2816  0594                     u1863:
  2817  0594                     l1624:
  2818  0594  0853               	movf	___flmul@temp+1,w
  2819  0595  00C2               	movwf	??___flmul
  2820  0596  01C3               	clrf	??___flmul+1
  2821  0597  01C4               	clrf	??___flmul+2
  2822  0598  01C5               	clrf	??___flmul+3
  2823  0599  0842               	movf	??___flmul,w
  2824  059A  07CE               	addwf	___flmul@prod,f
  2825  059B  0843               	movf	??___flmul+1,w
  2826  059C  1103               	clrz
  2827  059D  1803               	skipnc
  2828  059E  3E01               	addlw	1
  2829  059F  1903               	skipnz
  2830  05A0  2DA2               	goto	u1871
  2831  05A1  07CF               	addwf	___flmul@prod+1,f
  2832  05A2                     u1871:
  2833  05A2  0844               	movf	??___flmul+2,w
  2834  05A3  1103               	clrz
  2835  05A4  1803               	skipnc
  2836  05A5  3E01               	addlw	1
  2837  05A6  1903               	skipnz
  2838  05A7  2DA9               	goto	u1872
  2839  05A8  07D0               	addwf	___flmul@prod+2,f
  2840  05A9                     u1872:
  2841  05A9  0845               	movf	??___flmul+3,w
  2842  05AA  1103               	clrz
  2843  05AB  1803               	skipnc
  2844  05AC  3E01               	addlw	1
  2845  05AD  1903               	skipnz
  2846  05AE  2DB0               	goto	u1873
  2847  05AF  07D1               	addwf	___flmul@prod+3,f
  2848  05B0                     u1873:
  2849  05B0                     l1626:
  2850  05B0  3008               	movlw	8
  2851  05B1  00C2               	movwf	??___flmul
  2852  05B2                     u1885:
  2853  05B2  1003               	clrc
  2854  05B3  0DC8               	rlf	___flmul@grs,f
  2855  05B4  0DC9               	rlf	___flmul@grs+1,f
  2856  05B5  0DCA               	rlf	___flmul@grs+2,f
  2857  05B6  0DCB               	rlf	___flmul@grs+3,f
  2858  05B7  0BC2               	decfsz	??___flmul,f
  2859  05B8  2DB2               	goto	u1885
  2860  05B9                     l1628:
  2861  05B9  083B               	movf	___flmul@b+1,w
  2862  05BA  00C2               	movwf	??___flmul
  2863  05BB  0842               	movf	??___flmul,w
  2864  05BC  00F0               	movwf	__Umul8_16@multiplicand
  2865  05BD  083E               	movf	___flmul@a,w
  2866  05BE  120A  158A  25E5  120A  118A  	fcall	__Umul8_16
  2867  05C3  0871               	movf	?__Umul8_16+1,w
  2868  05C4  1283               	bcf	3,5	;RP0=0, select bank0
  2869  05C5  1303               	bcf	3,6	;RP1=0, select bank0
  2870  05C6  00D3               	movwf	___flmul@temp+1
  2871  05C7  0870               	movf	?__Umul8_16,w
  2872  05C8  00D2               	movwf	___flmul@temp
  2873  05C9                     l1630:
  2874  05C9  0852               	movf	___flmul@temp,w
  2875  05CA  00C2               	movwf	??___flmul
  2876  05CB  0853               	movf	___flmul@temp+1,w
  2877  05CC  00C3               	movwf	??___flmul+1
  2878  05CD  01C4               	clrf	??___flmul+2
  2879  05CE  01C5               	clrf	??___flmul+3
  2880  05CF  0842               	movf	??___flmul,w
  2881  05D0  07C8               	addwf	___flmul@grs,f
  2882  05D1  0843               	movf	??___flmul+1,w
  2883  05D2  1103               	clrz
  2884  05D3  1803               	skipnc
  2885  05D4  3E01               	addlw	1
  2886  05D5  1903               	skipnz
  2887  05D6  2DD8               	goto	u1891
  2888  05D7  07C9               	addwf	___flmul@grs+1,f
  2889  05D8                     u1891:
  2890  05D8  0844               	movf	??___flmul+2,w
  2891  05D9  1103               	clrz
  2892  05DA  1803               	skipnc
  2893  05DB  3E01               	addlw	1
  2894  05DC  1903               	skipnz
  2895  05DD  2DDF               	goto	u1892
  2896  05DE  07CA               	addwf	___flmul@grs+2,f
  2897  05DF                     u1892:
  2898  05DF  0845               	movf	??___flmul+3,w
  2899  05E0  1103               	clrz
  2900  05E1  1803               	skipnc
  2901  05E2  3E01               	addlw	1
  2902  05E3  1903               	skipnz
  2903  05E4  2DE6               	goto	u1893
  2904  05E5  07CB               	addwf	___flmul@grs+3,f
  2905  05E6                     u1893:
  2906  05E6                     l1632:
  2907  05E6  083A               	movf	___flmul@b,w
  2908  05E7  00C2               	movwf	??___flmul
  2909  05E8  0842               	movf	??___flmul,w
  2910  05E9  00F0               	movwf	__Umul8_16@multiplicand
  2911  05EA  083F               	movf	___flmul@a+1,w
  2912  05EB  120A  158A  25E5  120A  118A  	fcall	__Umul8_16
  2913  05F0  0871               	movf	?__Umul8_16+1,w
  2914  05F1  1283               	bcf	3,5	;RP0=0, select bank0
  2915  05F2  1303               	bcf	3,6	;RP1=0, select bank0
  2916  05F3  00D3               	movwf	___flmul@temp+1
  2917  05F4  0870               	movf	?__Umul8_16,w
  2918  05F5  00D2               	movwf	___flmul@temp
  2919  05F6                     l1634:
  2920  05F6  0852               	movf	___flmul@temp,w
  2921  05F7  00C2               	movwf	??___flmul
  2922  05F8  0853               	movf	___flmul@temp+1,w
  2923  05F9  00C3               	movwf	??___flmul+1
  2924  05FA  01C4               	clrf	??___flmul+2
  2925  05FB  01C5               	clrf	??___flmul+3
  2926  05FC  0842               	movf	??___flmul,w
  2927  05FD  07C8               	addwf	___flmul@grs,f
  2928  05FE  0843               	movf	??___flmul+1,w
  2929  05FF  1103               	clrz
  2930  0600  1803               	skipnc
  2931  0601  3E01               	addlw	1
  2932  0602  1903               	skipnz
  2933  0603  2E05               	goto	u1901
  2934  0604  07C9               	addwf	___flmul@grs+1,f
  2935  0605                     u1901:
  2936  0605  0844               	movf	??___flmul+2,w
  2937  0606  1103               	clrz
  2938  0607  1803               	skipnc
  2939  0608  3E01               	addlw	1
  2940  0609  1903               	skipnz
  2941  060A  2E0C               	goto	u1902
  2942  060B  07CA               	addwf	___flmul@grs+2,f
  2943  060C                     u1902:
  2944  060C  0845               	movf	??___flmul+3,w
  2945  060D  1103               	clrz
  2946  060E  1803               	skipnc
  2947  060F  3E01               	addlw	1
  2948  0610  1903               	skipnz
  2949  0611  2E13               	goto	u1903
  2950  0612  07CB               	addwf	___flmul@grs+3,f
  2951  0613                     u1903:
  2952  0613                     l1636:
  2953  0613  3008               	movlw	8
  2954  0614  00C2               	movwf	??___flmul
  2955  0615                     u1915:
  2956  0615  1003               	clrc
  2957  0616  0DC8               	rlf	___flmul@grs,f
  2958  0617  0DC9               	rlf	___flmul@grs+1,f
  2959  0618  0DCA               	rlf	___flmul@grs+2,f
  2960  0619  0DCB               	rlf	___flmul@grs+3,f
  2961  061A  0BC2               	decfsz	??___flmul,f
  2962  061B  2E15               	goto	u1915
  2963  061C  083A               	movf	___flmul@b,w
  2964  061D  00C2               	movwf	??___flmul
  2965  061E  0842               	movf	??___flmul,w
  2966  061F  00F0               	movwf	__Umul8_16@multiplicand
  2967  0620  083E               	movf	___flmul@a,w
  2968  0621  120A  158A  25E5  120A  118A  	fcall	__Umul8_16
  2969  0626  0871               	movf	?__Umul8_16+1,w
  2970  0627  1283               	bcf	3,5	;RP0=0, select bank0
  2971  0628  1303               	bcf	3,6	;RP1=0, select bank0
  2972  0629  00D3               	movwf	___flmul@temp+1
  2973  062A  0870               	movf	?__Umul8_16,w
  2974  062B  00D2               	movwf	___flmul@temp
  2975  062C                     l1638:
  2976  062C  0852               	movf	___flmul@temp,w
  2977  062D  00C2               	movwf	??___flmul
  2978  062E  0853               	movf	___flmul@temp+1,w
  2979  062F  00C3               	movwf	??___flmul+1
  2980  0630  01C4               	clrf	??___flmul+2
  2981  0631  01C5               	clrf	??___flmul+3
  2982  0632  0842               	movf	??___flmul,w
  2983  0633  07C8               	addwf	___flmul@grs,f
  2984  0634  0843               	movf	??___flmul+1,w
  2985  0635  1103               	clrz
  2986  0636  1803               	skipnc
  2987  0637  3E01               	addlw	1
  2988  0638  1903               	skipnz
  2989  0639  2E3B               	goto	u1921
  2990  063A  07C9               	addwf	___flmul@grs+1,f
  2991  063B                     u1921:
  2992  063B  0844               	movf	??___flmul+2,w
  2993  063C  1103               	clrz
  2994  063D  1803               	skipnc
  2995  063E  3E01               	addlw	1
  2996  063F  1903               	skipnz
  2997  0640  2E42               	goto	u1922
  2998  0641  07CA               	addwf	___flmul@grs+2,f
  2999  0642                     u1922:
  3000  0642  0845               	movf	??___flmul+3,w
  3001  0643  1103               	clrz
  3002  0644  1803               	skipnc
  3003  0645  3E01               	addlw	1
  3004  0646  1903               	skipnz
  3005  0647  2E49               	goto	u1923
  3006  0648  07CB               	addwf	___flmul@grs+3,f
  3007  0649                     u1923:
  3008  0649                     l1640:
  3009  0649  083B               	movf	___flmul@b+1,w
  3010  064A  00C2               	movwf	??___flmul
  3011  064B  0842               	movf	??___flmul,w
  3012  064C  00F0               	movwf	__Umul8_16@multiplicand
  3013  064D  0840               	movf	___flmul@a+2,w
  3014  064E  120A  158A  25E5  120A  118A  	fcall	__Umul8_16
  3015  0653  0871               	movf	?__Umul8_16+1,w
  3016  0654  1283               	bcf	3,5	;RP0=0, select bank0
  3017  0655  1303               	bcf	3,6	;RP1=0, select bank0
  3018  0656  00D3               	movwf	___flmul@temp+1
  3019  0657  0870               	movf	?__Umul8_16,w
  3020  0658  00D2               	movwf	___flmul@temp
  3021  0659  0852               	movf	___flmul@temp,w
  3022  065A  00C2               	movwf	??___flmul
  3023  065B  0853               	movf	___flmul@temp+1,w
  3024  065C  00C3               	movwf	??___flmul+1
  3025  065D  01C4               	clrf	??___flmul+2
  3026  065E  01C5               	clrf	??___flmul+3
  3027  065F  0842               	movf	??___flmul,w
  3028  0660  07CE               	addwf	___flmul@prod,f
  3029  0661  0843               	movf	??___flmul+1,w
  3030  0662  1103               	clrz
  3031  0663  1803               	skipnc
  3032  0664  3E01               	addlw	1
  3033  0665  1903               	skipnz
  3034  0666  2E68               	goto	u1931
  3035  0667  07CF               	addwf	___flmul@prod+1,f
  3036  0668                     u1931:
  3037  0668  0844               	movf	??___flmul+2,w
  3038  0669  1103               	clrz
  3039  066A  1803               	skipnc
  3040  066B  3E01               	addlw	1
  3041  066C  1903               	skipnz
  3042  066D  2E6F               	goto	u1932
  3043  066E  07D0               	addwf	___flmul@prod+2,f
  3044  066F                     u1932:
  3045  066F  0845               	movf	??___flmul+3,w
  3046  0670  1103               	clrz
  3047  0671  1803               	skipnc
  3048  0672  3E01               	addlw	1
  3049  0673  1903               	skipnz
  3050  0674  2E76               	goto	u1933
  3051  0675  07D1               	addwf	___flmul@prod+3,f
  3052  0676                     u1933:
  3053  0676                     l1642:
  3054  0676  083C               	movf	___flmul@b+2,w
  3055  0677  00C2               	movwf	??___flmul
  3056  0678  0842               	movf	??___flmul,w
  3057  0679  00F0               	movwf	__Umul8_16@multiplicand
  3058  067A  083F               	movf	___flmul@a+1,w
  3059  067B  120A  158A  25E5  120A  118A  	fcall	__Umul8_16
  3060  0680  0871               	movf	?__Umul8_16+1,w
  3061  0681  1283               	bcf	3,5	;RP0=0, select bank0
  3062  0682  1303               	bcf	3,6	;RP1=0, select bank0
  3063  0683  00D3               	movwf	___flmul@temp+1
  3064  0684  0870               	movf	?__Umul8_16,w
  3065  0685  00D2               	movwf	___flmul@temp
  3066  0686                     l1644:
  3067  0686  0852               	movf	___flmul@temp,w
  3068  0687  00C2               	movwf	??___flmul
  3069  0688  0853               	movf	___flmul@temp+1,w
  3070  0689  00C3               	movwf	??___flmul+1
  3071  068A  01C4               	clrf	??___flmul+2
  3072  068B  01C5               	clrf	??___flmul+3
  3073  068C  0842               	movf	??___flmul,w
  3074  068D  07CE               	addwf	___flmul@prod,f
  3075  068E  0843               	movf	??___flmul+1,w
  3076  068F  1103               	clrz
  3077  0690  1803               	skipnc
  3078  0691  3E01               	addlw	1
  3079  0692  1903               	skipnz
  3080  0693  2E95               	goto	u1941
  3081  0694  07CF               	addwf	___flmul@prod+1,f
  3082  0695                     u1941:
  3083  0695  0844               	movf	??___flmul+2,w
  3084  0696  1103               	clrz
  3085  0697  1803               	skipnc
  3086  0698  3E01               	addlw	1
  3087  0699  1903               	skipnz
  3088  069A  2E9C               	goto	u1942
  3089  069B  07D0               	addwf	___flmul@prod+2,f
  3090  069C                     u1942:
  3091  069C  0845               	movf	??___flmul+3,w
  3092  069D  1103               	clrz
  3093  069E  1803               	skipnc
  3094  069F  3E01               	addlw	1
  3095  06A0  1903               	skipnz
  3096  06A1  2EA3               	goto	u1943
  3097  06A2  07D1               	addwf	___flmul@prod+3,f
  3098  06A3                     u1943:
  3099  06A3  083C               	movf	___flmul@b+2,w
  3100  06A4  00C2               	movwf	??___flmul
  3101  06A5  0842               	movf	??___flmul,w
  3102  06A6  00F0               	movwf	__Umul8_16@multiplicand
  3103  06A7  0840               	movf	___flmul@a+2,w
  3104  06A8  120A  158A  25E5  120A  118A  	fcall	__Umul8_16
  3105  06AD  0871               	movf	?__Umul8_16+1,w
  3106  06AE  1283               	bcf	3,5	;RP0=0, select bank0
  3107  06AF  1303               	bcf	3,6	;RP1=0, select bank0
  3108  06B0  00D3               	movwf	___flmul@temp+1
  3109  06B1  0870               	movf	?__Umul8_16,w
  3110  06B2  00D2               	movwf	___flmul@temp
  3111  06B3                     l1646:
  3112  06B3  0852               	movf	___flmul@temp,w
  3113  06B4  00C2               	movwf	??___flmul
  3114  06B5  0853               	movf	___flmul@temp+1,w
  3115  06B6  00C3               	movwf	??___flmul+1
  3116  06B7  01C4               	clrf	??___flmul+2
  3117  06B8  01C5               	clrf	??___flmul+3
  3118  06B9  3008               	movlw	8
  3119  06BA                     u1955:
  3120  06BA  1003               	clrc
  3121  06BB  0DC2               	rlf	??___flmul,f
  3122  06BC  0DC3               	rlf	??___flmul+1,f
  3123  06BD  0DC4               	rlf	??___flmul+2,f
  3124  06BE  0DC5               	rlf	??___flmul+3,f
  3125  06BF                     u1950:
  3126  06BF  3EFF               	addlw	-1
  3127  06C0  1D03               	skipz
  3128  06C1  2EBA               	goto	u1955
  3129  06C2  0842               	movf	??___flmul,w
  3130  06C3  07CE               	addwf	___flmul@prod,f
  3131  06C4  0843               	movf	??___flmul+1,w
  3132  06C5  1103               	clrz
  3133  06C6  1803               	skipnc
  3134  06C7  3E01               	addlw	1
  3135  06C8  1903               	skipnz
  3136  06C9  2ECB               	goto	u1961
  3137  06CA  07CF               	addwf	___flmul@prod+1,f
  3138  06CB                     u1961:
  3139  06CB  0844               	movf	??___flmul+2,w
  3140  06CC  1103               	clrz
  3141  06CD  1803               	skipnc
  3142  06CE  3E01               	addlw	1
  3143  06CF  1903               	skipnz
  3144  06D0  2ED2               	goto	u1962
  3145  06D1  07D0               	addwf	___flmul@prod+2,f
  3146  06D2                     u1962:
  3147  06D2  0845               	movf	??___flmul+3,w
  3148  06D3  1103               	clrz
  3149  06D4  1803               	skipnc
  3150  06D5  3E01               	addlw	1
  3151  06D6  1903               	skipnz
  3152  06D7  2ED9               	goto	u1963
  3153  06D8  07D1               	addwf	___flmul@prod+3,f
  3154  06D9                     u1963:
  3155  06D9                     l1648:
  3156  06D9  0848               	movf	___flmul@grs,w
  3157  06DA  00C2               	movwf	??___flmul
  3158  06DB  0849               	movf	___flmul@grs+1,w
  3159  06DC  00C3               	movwf	??___flmul+1
  3160  06DD  084A               	movf	___flmul@grs+2,w
  3161  06DE  00C4               	movwf	??___flmul+2
  3162  06DF  084B               	movf	___flmul@grs+3,w
  3163  06E0  00C5               	movwf	??___flmul+3
  3164  06E1  3018               	movlw	24
  3165  06E2                     u1975:
  3166  06E2  1003               	clrc
  3167  06E3  0CC5               	rrf	??___flmul+3,f
  3168  06E4  0CC4               	rrf	??___flmul+2,f
  3169  06E5  0CC3               	rrf	??___flmul+1,f
  3170  06E6  0CC2               	rrf	??___flmul,f
  3171  06E7                     u1970:
  3172  06E7  3EFF               	addlw	-1
  3173  06E8  1D03               	skipz
  3174  06E9  2EE2               	goto	u1975
  3175  06EA  0842               	movf	??___flmul,w
  3176  06EB  07CE               	addwf	___flmul@prod,f
  3177  06EC  0843               	movf	??___flmul+1,w
  3178  06ED  1103               	clrz
  3179  06EE  1803               	skipnc
  3180  06EF  3E01               	addlw	1
  3181  06F0  1903               	skipnz
  3182  06F1  2EF3               	goto	u1981
  3183  06F2  07CF               	addwf	___flmul@prod+1,f
  3184  06F3                     u1981:
  3185  06F3  0844               	movf	??___flmul+2,w
  3186  06F4  1103               	clrz
  3187  06F5  1803               	skipnc
  3188  06F6  3E01               	addlw	1
  3189  06F7  1903               	skipnz
  3190  06F8  2EFA               	goto	u1982
  3191  06F9  07D0               	addwf	___flmul@prod+2,f
  3192  06FA                     u1982:
  3193  06FA  0845               	movf	??___flmul+3,w
  3194  06FB  1103               	clrz
  3195  06FC  1803               	skipnc
  3196  06FD  3E01               	addlw	1
  3197  06FE  1903               	skipnz
  3198  06FF  2F01               	goto	u1983
  3199  0700  07D1               	addwf	___flmul@prod+3,f
  3200  0701                     u1983:
  3201  0701                     l1650:
  3202  0701  3008               	movlw	8
  3203  0702  00C2               	movwf	??___flmul
  3204  0703                     u1995:
  3205  0703  1003               	clrc
  3206  0704  0DC8               	rlf	___flmul@grs,f
  3207  0705  0DC9               	rlf	___flmul@grs+1,f
  3208  0706  0DCA               	rlf	___flmul@grs+2,f
  3209  0707  0DCB               	rlf	___flmul@grs+3,f
  3210  0708  0BC2               	decfsz	??___flmul,f
  3211  0709  2F03               	goto	u1995
  3212  070A                     l1652:
  3213  070A  084D               	movf	___flmul@bexp,w
  3214  070B  074C               	addwf	___flmul@aexp,w
  3215  070C  00C2               	movwf	??___flmul
  3216  070D  01C3               	clrf	??___flmul+1
  3217  070E  0DC3               	rlf	??___flmul+1,f
  3218  070F  0842               	movf	??___flmul,w
  3219  0710  3E82               	addlw	130
  3220  0711  00D2               	movwf	___flmul@temp
  3221  0712  0843               	movf	??___flmul+1,w
  3222  0713  1803               	skipnc
  3223  0714  3E01               	addlw	1
  3224  0715  3EFF               	addlw	255
  3225  0716  00D3               	movwf	___flmul@temp+1
  3226  0717  2F35               	goto	l1664
  3227  0718                     l1654:
  3228  0718  3001               	movlw	1
  3229  0719  00C2               	movwf	??___flmul
  3230  071A                     u2005:
  3231  071A  1003               	clrc
  3232  071B  0DCE               	rlf	___flmul@prod,f
  3233  071C  0DCF               	rlf	___flmul@prod+1,f
  3234  071D  0DD0               	rlf	___flmul@prod+2,f
  3235  071E  0DD1               	rlf	___flmul@prod+3,f
  3236  071F  0BC2               	decfsz	??___flmul,f
  3237  0720  2F1A               	goto	u2005
  3238  0721                     l1656:
  3239  0721  1FCB               	btfss	___flmul@grs+3,7
  3240  0722  2F24               	goto	u2011
  3241  0723  2F25               	goto	u2010
  3242  0724                     u2011:
  3243  0724  2F26               	goto	l1660
  3244  0725                     u2010:
  3245  0725                     l1658:
  3246  0725  144E               	bsf	___flmul@prod,0
  3247  0726                     l1660:
  3248  0726  3001               	movlw	1
  3249  0727  00C2               	movwf	??___flmul
  3250  0728                     u2025:
  3251  0728  1003               	clrc
  3252  0729  0DC8               	rlf	___flmul@grs,f
  3253  072A  0DC9               	rlf	___flmul@grs+1,f
  3254  072B  0DCA               	rlf	___flmul@grs+2,f
  3255  072C  0DCB               	rlf	___flmul@grs+3,f
  3256  072D  0BC2               	decfsz	??___flmul,f
  3257  072E  2F28               	goto	u2025
  3258  072F                     l1662:
  3259  072F  30FF               	movlw	255
  3260  0730  07D2               	addwf	___flmul@temp,f
  3261  0731  1803               	skipnc
  3262  0732  0AD3               	incf	___flmul@temp+1,f
  3263  0733  30FF               	movlw	255
  3264  0734  07D3               	addwf	___flmul@temp+1,f
  3265  0735                     l1664:
  3266  0735  1FD0               	btfss	___flmul@prod+2,7
  3267  0736  2F38               	goto	u2031
  3268  0737  2F39               	goto	u2030
  3269  0738                     u2031:
  3270  0738  2F18               	goto	l1654
  3271  0739                     u2030:
  3272  0739                     l1666:
  3273  0739  01CC               	clrf	___flmul@aexp
  3274  073A                     l1668:
  3275  073A  1FCB               	btfss	___flmul@grs+3,7
  3276  073B  2F3D               	goto	u2041
  3277  073C  2F3E               	goto	u2040
  3278  073D                     u2041:
  3279  073D  2F5A               	goto	l1676
  3280  073E                     u2040:
  3281  073E                     l1670:
  3282  073E  30FF               	movlw	255
  3283  073F  0548               	andwf	___flmul@grs,w
  3284  0740  00C2               	movwf	??___flmul
  3285  0741  30FF               	movlw	255
  3286  0742  0549               	andwf	___flmul@grs+1,w
  3287  0743  00C3               	movwf	??___flmul+1
  3288  0744  30FF               	movlw	255
  3289  0745  054A               	andwf	___flmul@grs+2,w
  3290  0746  00C4               	movwf	??___flmul+2
  3291  0747  307F               	movlw	127
  3292  0748  054B               	andwf	___flmul@grs+3,w
  3293  0749  00C5               	movwf	??___flmul+3
  3294  074A  0845               	movf	??___flmul+3,w
  3295  074B  0444               	iorwf	??___flmul+2,w
  3296  074C  0443               	iorwf	??___flmul+1,w
  3297  074D  0442               	iorwf	??___flmul,w
  3298  074E  1903               	skipnz
  3299  074F  2F51               	goto	u2051
  3300  0750  2F52               	goto	u2050
  3301  0751                     u2051:
  3302  0751  2F55               	goto	l595
  3303  0752                     u2050:
  3304  0752                     l1672:
  3305  0752  01CC               	clrf	___flmul@aexp
  3306  0753  0ACC               	incf	___flmul@aexp,f
  3307  0754  2F5A               	goto	l1676
  3308  0755                     l595:
  3309  0755  1C4E               	btfss	___flmul@prod,0
  3310  0756  2F58               	goto	u2061
  3311  0757  2F59               	goto	u2060
  3312  0758                     u2061:
  3313  0758  2F5A               	goto	l1676
  3314  0759                     u2060:
  3315  0759  2F52               	goto	l1672
  3316  075A                     l1676:
  3317  075A  084C               	movf	___flmul@aexp,w
  3318  075B  1903               	btfsc	3,2
  3319  075C  2F5E               	goto	u2071
  3320  075D  2F5F               	goto	u2070
  3321  075E                     u2071:
  3322  075E  2F90               	goto	l1686
  3323  075F                     u2070:
  3324  075F                     l1678:
  3325  075F  3001               	movlw	1
  3326  0760  07CE               	addwf	___flmul@prod,f
  3327  0761  3000               	movlw	0
  3328  0762  1803               	skipnc
  3329  0763  3001               	movlw	1
  3330  0764  07CF               	addwf	___flmul@prod+1,f
  3331  0765  3000               	movlw	0
  3332  0766  1803               	skipnc
  3333  0767  3001               	movlw	1
  3334  0768  07D0               	addwf	___flmul@prod+2,f
  3335  0769  3000               	movlw	0
  3336  076A  1803               	skipnc
  3337  076B  3001               	movlw	1
  3338  076C  07D1               	addwf	___flmul@prod+3,f
  3339  076D                     l1680:
  3340  076D  1C51               	btfss	___flmul@prod+3,0
  3341  076E  2F70               	goto	u2081
  3342  076F  2F71               	goto	u2080
  3343  0770                     u2081:
  3344  0770  2F90               	goto	l1686
  3345  0771                     u2080:
  3346  0771                     l1682:
  3347  0771  084E               	movf	___flmul@prod,w
  3348  0772  00C2               	movwf	??___flmul
  3349  0773  084F               	movf	___flmul@prod+1,w
  3350  0774  00C3               	movwf	??___flmul+1
  3351  0775  0850               	movf	___flmul@prod+2,w
  3352  0776  00C4               	movwf	??___flmul+2
  3353  0777  0851               	movf	___flmul@prod+3,w
  3354  0778  00C5               	movwf	??___flmul+3
  3355  0779  3001               	movlw	1
  3356  077A  00C6               	movwf	??___flmul+4
  3357  077B                     u2095:
  3358  077B  0D45               	rlf	??___flmul+3,w
  3359  077C  0CC5               	rrf	??___flmul+3,f
  3360  077D  0CC4               	rrf	??___flmul+2,f
  3361  077E  0CC3               	rrf	??___flmul+1,f
  3362  077F  0CC2               	rrf	??___flmul,f
  3363  0780                     u2090:
  3364  0780  0BC6               	decfsz	??___flmul+4,f
  3365  0781  2F7B               	goto	u2095
  3366  0782  0845               	movf	??___flmul+3,w
  3367  0783  00D1               	movwf	___flmul@prod+3
  3368  0784  0844               	movf	??___flmul+2,w
  3369  0785  00D0               	movwf	___flmul@prod+2
  3370  0786  0843               	movf	??___flmul+1,w
  3371  0787  00CF               	movwf	___flmul@prod+1
  3372  0788  0842               	movf	??___flmul,w
  3373  0789  00CE               	movwf	___flmul@prod
  3374  078A                     l1684:
  3375  078A  3001               	movlw	1
  3376  078B  07D2               	addwf	___flmul@temp,f
  3377  078C  1803               	skipnc
  3378  078D  0AD3               	incf	___flmul@temp+1,f
  3379  078E  3000               	movlw	0
  3380  078F  07D3               	addwf	___flmul@temp+1,f
  3381  0790                     l1686:
  3382  0790  0853               	movf	___flmul@temp+1,w
  3383  0791  3A80               	xorlw	128
  3384  0792  00FF               	movwf	btemp+1
  3385  0793  3080               	movlw	128
  3386  0794  027F               	subwf	btemp+1,w
  3387  0795  1D03               	skipz
  3388  0796  2F99               	goto	u2105
  3389  0797  30FF               	movlw	255
  3390  0798  0252               	subwf	___flmul@temp,w
  3391  0799                     u2105:
  3392  0799  1C03               	skipc
  3393  079A  2F9C               	goto	u2101
  3394  079B  2F9D               	goto	u2100
  3395  079C                     u2101:
  3396  079C  2FA8               	goto	l1690
  3397  079D                     u2100:
  3398  079D                     l1688:
  3399  079D  307F               	movlw	127
  3400  079E  1283               	bcf	3,5	;RP0=0, select bank0
  3401  079F  1303               	bcf	3,6	;RP1=0, select bank0
  3402  07A0  00D1               	movwf	___flmul@prod+3
  3403  07A1  3080               	movlw	128
  3404  07A2  00D0               	movwf	___flmul@prod+2
  3405  07A3  3000               	movlw	0
  3406  07A4  00CF               	movwf	___flmul@prod+1
  3407  07A5  3000               	movlw	0
  3408  07A6  00CE               	movwf	___flmul@prod
  3409  07A7  2FDD               	goto	l601
  3410  07A8                     l1690:
  3411  07A8  1283               	bcf	3,5	;RP0=0, select bank0
  3412  07A9  1303               	bcf	3,6	;RP1=0, select bank0
  3413  07AA  0853               	movf	___flmul@temp+1,w
  3414  07AB  3A80               	xorlw	128
  3415  07AC  00FF               	movwf	btemp+1
  3416  07AD  3080               	movlw	128
  3417  07AE  027F               	subwf	btemp+1,w
  3418  07AF  1D03               	skipz
  3419  07B0  2FB3               	goto	u2115
  3420  07B1  3001               	movlw	1
  3421  07B2  0252               	subwf	___flmul@temp,w
  3422  07B3                     u2115:
  3423  07B3  1803               	skipnc
  3424  07B4  2FB6               	goto	u2111
  3425  07B5  2FB7               	goto	u2110
  3426  07B6                     u2111:
  3427  07B6  2FC3               	goto	l1696
  3428  07B7                     u2110:
  3429  07B7                     l1692:
  3430  07B7  3000               	movlw	0
  3431  07B8  1283               	bcf	3,5	;RP0=0, select bank0
  3432  07B9  1303               	bcf	3,6	;RP1=0, select bank0
  3433  07BA  00D1               	movwf	___flmul@prod+3
  3434  07BB  3000               	movlw	0
  3435  07BC  00D0               	movwf	___flmul@prod+2
  3436  07BD  3000               	movlw	0
  3437  07BE  00CF               	movwf	___flmul@prod+1
  3438  07BF  3000               	movlw	0
  3439  07C0  00CE               	movwf	___flmul@prod
  3440  07C1                     l1694:
  3441  07C1  01C7               	clrf	___flmul@sign
  3442  07C2  2FDD               	goto	l601
  3443  07C3                     l1696:
  3444  07C3  1283               	bcf	3,5	;RP0=0, select bank0
  3445  07C4  1303               	bcf	3,6	;RP1=0, select bank0
  3446  07C5  0852               	movf	___flmul@temp,w
  3447  07C6  00C2               	movwf	??___flmul
  3448  07C7  0842               	movf	??___flmul,w
  3449  07C8  00CD               	movwf	___flmul@bexp
  3450  07C9  30FF               	movlw	255
  3451  07CA  05CE               	andwf	___flmul@prod,f
  3452  07CB  30FF               	movlw	255
  3453  07CC  05CF               	andwf	___flmul@prod+1,f
  3454  07CD  307F               	movlw	127
  3455  07CE  05D0               	andwf	___flmul@prod+2,f
  3456  07CF  3000               	movlw	0
  3457  07D0  05D1               	andwf	___flmul@prod+3,f
  3458  07D1                     l1698:
  3459  07D1  1C4D               	btfss	___flmul@bexp,0
  3460  07D2  2FD4               	goto	u2121
  3461  07D3  2FD5               	goto	u2120
  3462  07D4                     u2121:
  3463  07D4  2FD6               	goto	l1702
  3464  07D5                     u2120:
  3465  07D5                     l1700:
  3466  07D5  17D0               	bsf	___flmul@prod+2,7
  3467  07D6                     l1702:
  3468  07D6  084D               	movf	___flmul@bexp,w
  3469  07D7  00C2               	movwf	??___flmul
  3470  07D8  1003               	clrc
  3471  07D9  0C42               	rrf	??___flmul,w
  3472  07DA  00C3               	movwf	??___flmul+1
  3473  07DB  0843               	movf	??___flmul+1,w
  3474  07DC  00D1               	movwf	___flmul@prod+3
  3475  07DD                     l601:
  3476  07DD  0847               	movf	___flmul@sign,w
  3477  07DE  00C2               	movwf	??___flmul
  3478  07DF  0842               	movf	??___flmul,w
  3479  07E0  04D1               	iorwf	___flmul@prod+3,f
  3480  07E1                     l1704:
  3481  07E1  0851               	movf	___flmul@prod+3,w
  3482  07E2  00BD               	movwf	?___flmul+3
  3483  07E3  0850               	movf	___flmul@prod+2,w
  3484  07E4  00BC               	movwf	?___flmul+2
  3485  07E5  084F               	movf	___flmul@prod+1,w
  3486  07E6  00BB               	movwf	?___flmul+1
  3487  07E7  084E               	movf	___flmul@prod,w
  3488  07E8  00BA               	movwf	?___flmul
  3489  07E9                     l589:
  3490  07E9  0008               	return
  3491  07EA                     __end_of___flmul:
  3492                           
  3493                           	psect	text13
  3494  0DE5                     __ptext13:	
  3495 ;; *************** function __Umul8_16 *****************
  3496 ;; Defined at:
  3497 ;;		line 4 in file "C:\Program Files\Microchip\xc8\v2.32\pic\sources\c90\common\Umul8_16.c"
  3498 ;; Parameters:    Size  Location     Type
  3499 ;;  multiplier      1    wreg     unsigned char 
  3500 ;;  multiplicand    1    0[COMMON] unsigned char 
  3501 ;; Auto vars:     Size  Location     Type
  3502 ;;  multiplier      1    8[COMMON] unsigned char 
  3503 ;;  word_mpld       2    6[COMMON] unsigned int 
  3504 ;;  product         2    4[COMMON] unsigned int 
  3505 ;; Return value:  Size  Location     Type
  3506 ;;                  2    0[COMMON] unsigned int 
  3507 ;; Registers used:
  3508 ;;		wreg, status,2, status,0
  3509 ;; Tracked objects:
  3510 ;;		On entry : 0/0
  3511 ;;		On exit  : 0/0
  3512 ;;		Unchanged: 0/0
  3513 ;; Data sizes:     COMMON   BANK0   BANK1   BANK3   BANK2
  3514 ;;      Params:         2       0       0       0       0
  3515 ;;      Locals:         5       0       0       0       0
  3516 ;;      Temps:          2       0       0       0       0
  3517 ;;      Totals:         9       0       0       0       0
  3518 ;;Total ram usage:        9 bytes
  3519 ;; Hardware stack levels used: 1
  3520 ;; This function calls:
  3521 ;;		Nothing
  3522 ;; This function is called by:
  3523 ;;		___flmul
  3524 ;; This function uses a non-reentrant model
  3525 ;;
  3526                           
  3527                           
  3528                           ;psect for function __Umul8_16
  3529  0DE5                     __Umul8_16:
  3530                           
  3531                           ;incstack = 0
  3532                           ; Regs used in __Umul8_16: [wreg+status,2+status,0]
  3533                           ;__Umul8_16@multiplier stored from wreg
  3534  0DE5  00F8               	movwf	__Umul8_16@multiplier
  3535  0DE6                     l1328:
  3536  0DE6  01F4               	clrf	__Umul8_16@product
  3537  0DE7  01F5               	clrf	__Umul8_16@product+1
  3538  0DE8                     l1330:
  3539  0DE8  0870               	movf	__Umul8_16@multiplicand,w
  3540  0DE9  00F2               	movwf	??__Umul8_16
  3541  0DEA  01F3               	clrf	??__Umul8_16+1
  3542  0DEB  0872               	movf	??__Umul8_16,w
  3543  0DEC  00F6               	movwf	__Umul8_16@word_mpld
  3544  0DED  0873               	movf	??__Umul8_16+1,w
  3545  0DEE  00F7               	movwf	__Umul8_16@word_mpld+1
  3546  0DEF                     l1332:
  3547  0DEF  1C78               	btfss	__Umul8_16@multiplier,0
  3548  0DF0  2DF2               	goto	u1271
  3549  0DF1  2DF3               	goto	u1270
  3550  0DF2                     u1271:
  3551  0DF2  2DF9               	goto	l608
  3552  0DF3                     u1270:
  3553  0DF3                     l1334:
  3554  0DF3  0876               	movf	__Umul8_16@word_mpld,w
  3555  0DF4  07F4               	addwf	__Umul8_16@product,f
  3556  0DF5  1803               	skipnc
  3557  0DF6  0AF5               	incf	__Umul8_16@product+1,f
  3558  0DF7  0877               	movf	__Umul8_16@word_mpld+1,w
  3559  0DF8  07F5               	addwf	__Umul8_16@product+1,f
  3560  0DF9                     l608:
  3561  0DF9  3001               	movlw	1
  3562  0DFA                     u1285:
  3563  0DFA  1003               	clrc
  3564  0DFB  0DF6               	rlf	__Umul8_16@word_mpld,f
  3565  0DFC  0DF7               	rlf	__Umul8_16@word_mpld+1,f
  3566  0DFD  3EFF               	addlw	-1
  3567  0DFE  1D03               	skipz
  3568  0DFF  2DFA               	goto	u1285
  3569  0E00  1003               	clrc
  3570  0E01  0CF8               	rrf	__Umul8_16@multiplier,f
  3571  0E02                     l1336:
  3572  0E02  0878               	movf	__Umul8_16@multiplier,w
  3573  0E03  1D03               	btfss	3,2
  3574  0E04  2E06               	goto	u1291
  3575  0E05  2E07               	goto	u1290
  3576  0E06                     u1291:
  3577  0E06  2DEF               	goto	l1332
  3578  0E07                     u1290:
  3579  0E07                     l1338:
  3580  0E07  0875               	movf	__Umul8_16@product+1,w
  3581  0E08  00F1               	movwf	?__Umul8_16+1
  3582  0E09  0874               	movf	__Umul8_16@product,w
  3583  0E0A  00F0               	movwf	?__Umul8_16
  3584  0E0B                     l610:
  3585  0E0B  0008               	return
  3586  0E0C                     __end_of__Umul8_16:
  3587                           
  3588                           	psect	text14
  3589  02AC                     __ptext14:	
  3590 ;; *************** function ___fldiv *****************
  3591 ;; Defined at:
  3592 ;;		line 8 in file "C:\Program Files\Microchip\xc8\v2.32\pic\sources\c90\common\sprcdiv.c"
  3593 ;; Parameters:    Size  Location     Type
  3594 ;;  a               4    0[BANK0 ] unsigned int 
  3595 ;;  b               4    4[BANK0 ] unsigned int 
  3596 ;; Auto vars:     Size  Location     Type
  3597 ;;  grs             4   20[BANK0 ] unsigned long 
  3598 ;;  rem             4   13[BANK0 ] unsigned long 
  3599 ;;  new_exp         2   18[BANK0 ] int 
  3600 ;;  aexp            1   25[BANK0 ] unsigned char 
  3601 ;;  bexp            1   24[BANK0 ] unsigned char 
  3602 ;;  sign            1   17[BANK0 ] unsigned char 
  3603 ;; Return value:  Size  Location     Type
  3604 ;;                  4    0[BANK0 ] unsigned char 
  3605 ;; Registers used:
  3606 ;;		wreg, status,2, status,0, btemp+1
  3607 ;; Tracked objects:
  3608 ;;		On entry : 0/0
  3609 ;;		On exit  : 0/0
  3610 ;;		Unchanged: 0/0
  3611 ;; Data sizes:     COMMON   BANK0   BANK1   BANK3   BANK2
  3612 ;;      Params:         0       8       0       0       0
  3613 ;;      Locals:         0      13       0       0       0
  3614 ;;      Temps:          0       5       0       0       0
  3615 ;;      Totals:         0      26       0       0       0
  3616 ;;Total ram usage:       26 bytes
  3617 ;; Hardware stack levels used: 1
  3618 ;; This function calls:
  3619 ;;		Nothing
  3620 ;; This function is called by:
  3621 ;;		_volt
  3622 ;;		_temp
  3623 ;; This function uses a non-reentrant model
  3624 ;;
  3625                           
  3626                           
  3627                           ;psect for function ___fldiv
  3628  02AC                     ___fldiv:
  3629  02AC                     l1426:	
  3630                           ;incstack = 0
  3631                           ; Regs used in ___fldiv: [wreg+status,2+status,0+btemp+1]
  3632                           
  3633  02AC  1283               	bcf	3,5	;RP0=0, select bank0
  3634  02AD  1303               	bcf	3,6	;RP1=0, select bank0
  3635  02AE  0827               	movf	___fldiv@b+3,w
  3636  02AF  3980               	andlw	128
  3637  02B0  00A8               	movwf	??___fldiv
  3638  02B1  0828               	movf	??___fldiv,w
  3639  02B2  00B1               	movwf	___fldiv@sign
  3640  02B3                     l1428:
  3641  02B3  0827               	movf	___fldiv@b+3,w
  3642  02B4  00A8               	movwf	??___fldiv
  3643  02B5  0728               	addwf	??___fldiv,w
  3644  02B6  00A9               	movwf	??___fldiv+1
  3645  02B7  0829               	movf	??___fldiv+1,w
  3646  02B8  00B8               	movwf	___fldiv@bexp
  3647  02B9                     l1430:
  3648  02B9  1FA6               	btfss	___fldiv@b+2,7
  3649  02BA  2ABC               	goto	u1471
  3650  02BB  2ABD               	goto	u1470
  3651  02BC                     u1471:
  3652  02BC  2ABE               	goto	l1434
  3653  02BD                     u1470:
  3654  02BD                     l1432:
  3655  02BD  1438               	bsf	___fldiv@bexp,0
  3656  02BE                     l1434:
  3657  02BE  0838               	movf	___fldiv@bexp,w
  3658  02BF  1903               	btfsc	3,2
  3659  02C0  2AC2               	goto	u1481
  3660  02C1  2AC3               	goto	u1480
  3661  02C2                     u1481:
  3662  02C2  2AD3               	goto	l1444
  3663  02C3                     u1480:
  3664  02C3                     l1436:
  3665  02C3  0A38               	incf	___fldiv@bexp,w
  3666  02C4  1D03               	btfss	3,2
  3667  02C5  2AC7               	goto	u1491
  3668  02C6  2AC8               	goto	u1490
  3669  02C7                     u1491:
  3670  02C7  2AD0               	goto	l1440
  3671  02C8                     u1490:
  3672  02C8                     l1438:
  3673  02C8  3000               	movlw	0
  3674  02C9  00A7               	movwf	___fldiv@b+3
  3675  02CA  3000               	movlw	0
  3676  02CB  00A6               	movwf	___fldiv@b+2
  3677  02CC  3000               	movlw	0
  3678  02CD  00A5               	movwf	___fldiv@b+1
  3679  02CE  3000               	movlw	0
  3680  02CF  00A4               	movwf	___fldiv@b
  3681  02D0                     l1440:
  3682  02D0  17A6               	bsf	___fldiv@b+2,7
  3683  02D1                     l1442:
  3684  02D1  01A7               	clrf	___fldiv@b+3
  3685  02D2  2ADB               	goto	l1446
  3686  02D3                     l1444:
  3687  02D3  3000               	movlw	0
  3688  02D4  00A7               	movwf	___fldiv@b+3
  3689  02D5  3000               	movlw	0
  3690  02D6  00A6               	movwf	___fldiv@b+2
  3691  02D7  3000               	movlw	0
  3692  02D8  00A5               	movwf	___fldiv@b+1
  3693  02D9  3000               	movlw	0
  3694  02DA  00A4               	movwf	___fldiv@b
  3695  02DB                     l1446:
  3696  02DB  0823               	movf	___fldiv@a+3,w
  3697  02DC  3980               	andlw	128
  3698  02DD  00A8               	movwf	??___fldiv
  3699  02DE  0828               	movf	??___fldiv,w
  3700  02DF  06B1               	xorwf	___fldiv@sign,f
  3701  02E0                     l1448:
  3702  02E0  0823               	movf	___fldiv@a+3,w
  3703  02E1  00A8               	movwf	??___fldiv
  3704  02E2  0728               	addwf	??___fldiv,w
  3705  02E3  00A9               	movwf	??___fldiv+1
  3706  02E4  0829               	movf	??___fldiv+1,w
  3707  02E5  00B9               	movwf	___fldiv@aexp
  3708  02E6                     l1450:
  3709  02E6  1FA2               	btfss	___fldiv@a+2,7
  3710  02E7  2AE9               	goto	u1501
  3711  02E8  2AEA               	goto	u1500
  3712  02E9                     u1501:
  3713  02E9  2AEB               	goto	l1454
  3714  02EA                     u1500:
  3715  02EA                     l1452:
  3716  02EA  1439               	bsf	___fldiv@aexp,0
  3717  02EB                     l1454:
  3718  02EB  0839               	movf	___fldiv@aexp,w
  3719  02EC  1903               	btfsc	3,2
  3720  02ED  2AEF               	goto	u1511
  3721  02EE  2AF0               	goto	u1510
  3722  02EF                     u1511:
  3723  02EF  2B00               	goto	l1464
  3724  02F0                     u1510:
  3725  02F0                     l1456:
  3726  02F0  0A39               	incf	___fldiv@aexp,w
  3727  02F1  1D03               	btfss	3,2
  3728  02F2  2AF4               	goto	u1521
  3729  02F3  2AF5               	goto	u1520
  3730  02F4                     u1521:
  3731  02F4  2AFD               	goto	l1460
  3732  02F5                     u1520:
  3733  02F5                     l1458:
  3734  02F5  3000               	movlw	0
  3735  02F6  00A3               	movwf	___fldiv@a+3
  3736  02F7  3000               	movlw	0
  3737  02F8  00A2               	movwf	___fldiv@a+2
  3738  02F9  3000               	movlw	0
  3739  02FA  00A1               	movwf	___fldiv@a+1
  3740  02FB  3000               	movlw	0
  3741  02FC  00A0               	movwf	___fldiv@a
  3742  02FD                     l1460:
  3743  02FD  17A2               	bsf	___fldiv@a+2,7
  3744  02FE                     l1462:
  3745  02FE  01A3               	clrf	___fldiv@a+3
  3746  02FF  2B08               	goto	l549
  3747  0300                     l1464:
  3748  0300  3000               	movlw	0
  3749  0301  00A3               	movwf	___fldiv@a+3
  3750  0302  3000               	movlw	0
  3751  0303  00A2               	movwf	___fldiv@a+2
  3752  0304  3000               	movlw	0
  3753  0305  00A1               	movwf	___fldiv@a+1
  3754  0306  3000               	movlw	0
  3755  0307  00A0               	movwf	___fldiv@a
  3756  0308                     l549:
  3757  0308  0823               	movf	___fldiv@a+3,w
  3758  0309  0422               	iorwf	___fldiv@a+2,w
  3759  030A  0421               	iorwf	___fldiv@a+1,w
  3760  030B  0420               	iorwf	___fldiv@a,w
  3761  030C  1D03               	skipz
  3762  030D  2B0F               	goto	u1531
  3763  030E  2B10               	goto	u1530
  3764  030F                     u1531:
  3765  030F  2B29               	goto	l1474
  3766  0310                     u1530:
  3767  0310                     l1466:
  3768  0310  3000               	movlw	0
  3769  0311  00A7               	movwf	___fldiv@b+3
  3770  0312  3000               	movlw	0
  3771  0313  00A6               	movwf	___fldiv@b+2
  3772  0314  3000               	movlw	0
  3773  0315  00A5               	movwf	___fldiv@b+1
  3774  0316  3000               	movlw	0
  3775  0317  00A4               	movwf	___fldiv@b
  3776  0318  3080               	movlw	128
  3777  0319  04A6               	iorwf	___fldiv@b+2,f
  3778  031A  307F               	movlw	127
  3779  031B  04A7               	iorwf	___fldiv@b+3,f
  3780  031C                     l1468:
  3781  031C  0831               	movf	___fldiv@sign,w
  3782  031D  00A8               	movwf	??___fldiv
  3783  031E  0828               	movf	??___fldiv,w
  3784  031F  04A7               	iorwf	___fldiv@b+3,f
  3785  0320                     l1470:
  3786  0320  0827               	movf	___fldiv@b+3,w
  3787  0321  00A3               	movwf	?___fldiv+3
  3788  0322  0826               	movf	___fldiv@b+2,w
  3789  0323  00A2               	movwf	?___fldiv+2
  3790  0324  0825               	movf	___fldiv@b+1,w
  3791  0325  00A1               	movwf	?___fldiv+1
  3792  0326  0824               	movf	___fldiv@b,w
  3793  0327  00A0               	movwf	?___fldiv
  3794  0328  2C88               	goto	l551
  3795  0329                     l1474:
  3796  0329  0838               	movf	___fldiv@bexp,w
  3797  032A  1D03               	btfss	3,2
  3798  032B  2B2D               	goto	u1541
  3799  032C  2B2E               	goto	u1540
  3800  032D                     u1541:
  3801  032D  2B37               	goto	l1480
  3802  032E                     u1540:
  3803  032E                     l1476:
  3804  032E  3000               	movlw	0
  3805  032F  00A3               	movwf	?___fldiv+3
  3806  0330  3000               	movlw	0
  3807  0331  00A2               	movwf	?___fldiv+2
  3808  0332  3000               	movlw	0
  3809  0333  00A1               	movwf	?___fldiv+1
  3810  0334  3000               	movlw	0
  3811  0335  00A0               	movwf	?___fldiv
  3812  0336  2C88               	goto	l551
  3813  0337                     l1480:
  3814  0337  0838               	movf	___fldiv@bexp,w
  3815  0338  00A8               	movwf	??___fldiv
  3816  0339  01A9               	clrf	??___fldiv+1
  3817  033A  0829               	movf	??___fldiv+1,w
  3818  033B  00AB               	movwf	??___fldiv+3
  3819  033C  0839               	movf	___fldiv@aexp,w
  3820  033D  0228               	subwf	??___fldiv,w
  3821  033E  00AA               	movwf	??___fldiv+2
  3822  033F  1C03               	skipc
  3823  0340  03AB               	decf	??___fldiv+3,f
  3824  0341  082A               	movf	??___fldiv+2,w
  3825  0342  3E7F               	addlw	127
  3826  0343  00B2               	movwf	___fldiv@new_exp
  3827  0344  082B               	movf	??___fldiv+3,w
  3828  0345  1803               	skipnc
  3829  0346  3E01               	addlw	1
  3830  0347  3E00               	addlw	0
  3831  0348  00B3               	movwf	___fldiv@new_exp+1
  3832  0349                     l1482:
  3833  0349  0827               	movf	___fldiv@b+3,w
  3834  034A  00B0               	movwf	___fldiv@rem+3
  3835  034B  0826               	movf	___fldiv@b+2,w
  3836  034C  00AF               	movwf	___fldiv@rem+2
  3837  034D  0825               	movf	___fldiv@b+1,w
  3838  034E  00AE               	movwf	___fldiv@rem+1
  3839  034F  0824               	movf	___fldiv@b,w
  3840  0350  00AD               	movwf	___fldiv@rem
  3841  0351                     l1484:
  3842  0351  3000               	movlw	0
  3843  0352  00A7               	movwf	___fldiv@b+3
  3844  0353  3000               	movlw	0
  3845  0354  00A6               	movwf	___fldiv@b+2
  3846  0355  3000               	movlw	0
  3847  0356  00A5               	movwf	___fldiv@b+1
  3848  0357  3000               	movlw	0
  3849  0358  00A4               	movwf	___fldiv@b
  3850  0359                     l1486:
  3851  0359  3000               	movlw	0
  3852  035A  00B7               	movwf	___fldiv@grs+3
  3853  035B  3000               	movlw	0
  3854  035C  00B6               	movwf	___fldiv@grs+2
  3855  035D  3000               	movlw	0
  3856  035E  00B5               	movwf	___fldiv@grs+1
  3857  035F  3000               	movlw	0
  3858  0360  00B4               	movwf	___fldiv@grs
  3859  0361                     l1488:
  3860  0361  01B9               	clrf	___fldiv@aexp
  3861  0362  2BAD               	goto	l1508
  3862  0363                     l1490:
  3863  0363  0839               	movf	___fldiv@aexp,w
  3864  0364  1903               	btfsc	3,2
  3865  0365  2B67               	goto	u1551
  3866  0366  2B68               	goto	u1550
  3867  0367                     u1551:
  3868  0367  2B88               	goto	l1500
  3869  0368                     u1550:
  3870  0368                     l1492:
  3871  0368  3001               	movlw	1
  3872  0369  00A8               	movwf	??___fldiv
  3873  036A                     u1565:
  3874  036A  1003               	clrc
  3875  036B  0DAD               	rlf	___fldiv@rem,f
  3876  036C  0DAE               	rlf	___fldiv@rem+1,f
  3877  036D  0DAF               	rlf	___fldiv@rem+2,f
  3878  036E  0DB0               	rlf	___fldiv@rem+3,f
  3879  036F  0BA8               	decfsz	??___fldiv,f
  3880  0370  2B6A               	goto	u1565
  3881  0371  3001               	movlw	1
  3882  0372  00A8               	movwf	??___fldiv
  3883  0373                     u1575:
  3884  0373  1003               	clrc
  3885  0374  0DA4               	rlf	___fldiv@b,f
  3886  0375  0DA5               	rlf	___fldiv@b+1,f
  3887  0376  0DA6               	rlf	___fldiv@b+2,f
  3888  0377  0DA7               	rlf	___fldiv@b+3,f
  3889  0378  0BA8               	decfsz	??___fldiv,f
  3890  0379  2B73               	goto	u1575
  3891  037A                     l1494:
  3892  037A  1FB7               	btfss	___fldiv@grs+3,7
  3893  037B  2B7D               	goto	u1581
  3894  037C  2B7E               	goto	u1580
  3895  037D                     u1581:
  3896  037D  2B7F               	goto	l1498
  3897  037E                     u1580:
  3898  037E                     l1496:
  3899  037E  1424               	bsf	___fldiv@b,0
  3900  037F                     l1498:
  3901  037F  3001               	movlw	1
  3902  0380  00A8               	movwf	??___fldiv
  3903  0381                     u1595:
  3904  0381  1003               	clrc
  3905  0382  0DB4               	rlf	___fldiv@grs,f
  3906  0383  0DB5               	rlf	___fldiv@grs+1,f
  3907  0384  0DB6               	rlf	___fldiv@grs+2,f
  3908  0385  0DB7               	rlf	___fldiv@grs+3,f
  3909  0386  0BA8               	decfsz	??___fldiv,f
  3910  0387  2B81               	goto	u1595
  3911  0388                     l1500:
  3912  0388  0823               	movf	___fldiv@a+3,w
  3913  0389  0230               	subwf	___fldiv@rem+3,w
  3914  038A  1D03               	skipz
  3915  038B  2B96               	goto	u1605
  3916  038C  0822               	movf	___fldiv@a+2,w
  3917  038D  022F               	subwf	___fldiv@rem+2,w
  3918  038E  1D03               	skipz
  3919  038F  2B96               	goto	u1605
  3920  0390  0821               	movf	___fldiv@a+1,w
  3921  0391  022E               	subwf	___fldiv@rem+1,w
  3922  0392  1D03               	skipz
  3923  0393  2B96               	goto	u1605
  3924  0394  0820               	movf	___fldiv@a,w
  3925  0395  022D               	subwf	___fldiv@rem,w
  3926  0396                     u1605:
  3927  0396  1C03               	skipc
  3928  0397  2B99               	goto	u1601
  3929  0398  2B9A               	goto	u1600
  3930  0399                     u1601:
  3931  0399  2BA9               	goto	l1506
  3932  039A                     u1600:
  3933  039A                     l1502:
  3934  039A  1737               	bsf	___fldiv@grs+3,6
  3935  039B                     l1504:
  3936  039B  0820               	movf	___fldiv@a,w
  3937  039C  02AD               	subwf	___fldiv@rem,f
  3938  039D  0821               	movf	___fldiv@a+1,w
  3939  039E  1C03               	skipc
  3940  039F  0F21               	incfsz	___fldiv@a+1,w
  3941  03A0  02AE               	subwf	___fldiv@rem+1,f
  3942  03A1  0822               	movf	___fldiv@a+2,w
  3943  03A2  1C03               	skipc
  3944  03A3  0F22               	incfsz	___fldiv@a+2,w
  3945  03A4  02AF               	subwf	___fldiv@rem+2,f
  3946  03A5  0823               	movf	___fldiv@a+3,w
  3947  03A6  1C03               	skipc
  3948  03A7  0F23               	incfsz	___fldiv@a+3,w
  3949  03A8  02B0               	subwf	___fldiv@rem+3,f
  3950  03A9                     l1506:
  3951  03A9  3001               	movlw	1
  3952  03AA  00A8               	movwf	??___fldiv
  3953  03AB  0828               	movf	??___fldiv,w
  3954  03AC  07B9               	addwf	___fldiv@aexp,f
  3955  03AD                     l1508:
  3956  03AD  301A               	movlw	26
  3957  03AE  0239               	subwf	___fldiv@aexp,w
  3958  03AF  1C03               	skipc
  3959  03B0  2BB2               	goto	u1611
  3960  03B1  2BB3               	goto	u1610
  3961  03B2                     u1611:
  3962  03B2  2B63               	goto	l1490
  3963  03B3                     u1610:
  3964  03B3                     l1510:
  3965  03B3  0830               	movf	___fldiv@rem+3,w
  3966  03B4  042F               	iorwf	___fldiv@rem+2,w
  3967  03B5  042E               	iorwf	___fldiv@rem+1,w
  3968  03B6  042D               	iorwf	___fldiv@rem,w
  3969  03B7  1903               	skipnz
  3970  03B8  2BBA               	goto	u1621
  3971  03B9  2BBB               	goto	u1620
  3972  03BA                     u1621:
  3973  03BA  2BDA               	goto	l1524
  3974  03BB                     u1620:
  3975  03BB                     l1512:
  3976  03BB  1434               	bsf	___fldiv@grs,0
  3977  03BC  2BDA               	goto	l1524
  3978  03BD                     l1514:
  3979  03BD  3001               	movlw	1
  3980  03BE  00A8               	movwf	??___fldiv
  3981  03BF                     u1635:
  3982  03BF  1003               	clrc
  3983  03C0  0DA4               	rlf	___fldiv@b,f
  3984  03C1  0DA5               	rlf	___fldiv@b+1,f
  3985  03C2  0DA6               	rlf	___fldiv@b+2,f
  3986  03C3  0DA7               	rlf	___fldiv@b+3,f
  3987  03C4  0BA8               	decfsz	??___fldiv,f
  3988  03C5  2BBF               	goto	u1635
  3989  03C6                     l1516:
  3990  03C6  1FB7               	btfss	___fldiv@grs+3,7
  3991  03C7  2BC9               	goto	u1641
  3992  03C8  2BCA               	goto	u1640
  3993  03C9                     u1641:
  3994  03C9  2BCB               	goto	l1520
  3995  03CA                     u1640:
  3996  03CA                     l1518:
  3997  03CA  1424               	bsf	___fldiv@b,0
  3998  03CB                     l1520:
  3999  03CB  3001               	movlw	1
  4000  03CC  00A8               	movwf	??___fldiv
  4001  03CD                     u1655:
  4002  03CD  1003               	clrc
  4003  03CE  0DB4               	rlf	___fldiv@grs,f
  4004  03CF  0DB5               	rlf	___fldiv@grs+1,f
  4005  03D0  0DB6               	rlf	___fldiv@grs+2,f
  4006  03D1  0DB7               	rlf	___fldiv@grs+3,f
  4007  03D2  0BA8               	decfsz	??___fldiv,f
  4008  03D3  2BCD               	goto	u1655
  4009  03D4                     l1522:
  4010  03D4  30FF               	movlw	255
  4011  03D5  07B2               	addwf	___fldiv@new_exp,f
  4012  03D6  1803               	skipnc
  4013  03D7  0AB3               	incf	___fldiv@new_exp+1,f
  4014  03D8  30FF               	movlw	255
  4015  03D9  07B3               	addwf	___fldiv@new_exp+1,f
  4016  03DA                     l1524:
  4017  03DA  1FA6               	btfss	___fldiv@b+2,7
  4018  03DB  2BDD               	goto	u1661
  4019  03DC  2BDE               	goto	u1660
  4020  03DD                     u1661:
  4021  03DD  2BBD               	goto	l1514
  4022  03DE                     u1660:
  4023  03DE                     l1526:
  4024  03DE  01B9               	clrf	___fldiv@aexp
  4025  03DF                     l1528:
  4026  03DF  1FB7               	btfss	___fldiv@grs+3,7
  4027  03E0  2BE2               	goto	u1671
  4028  03E1  2BE3               	goto	u1670
  4029  03E2                     u1671:
  4030  03E2  2BFF               	goto	l1536
  4031  03E3                     u1670:
  4032  03E3                     l1530:
  4033  03E3  30FF               	movlw	255
  4034  03E4  0534               	andwf	___fldiv@grs,w
  4035  03E5  00A8               	movwf	??___fldiv
  4036  03E6  30FF               	movlw	255
  4037  03E7  0535               	andwf	___fldiv@grs+1,w
  4038  03E8  00A9               	movwf	??___fldiv+1
  4039  03E9  30FF               	movlw	255
  4040  03EA  0536               	andwf	___fldiv@grs+2,w
  4041  03EB  00AA               	movwf	??___fldiv+2
  4042  03EC  307F               	movlw	127
  4043  03ED  0537               	andwf	___fldiv@grs+3,w
  4044  03EE  00AB               	movwf	??___fldiv+3
  4045  03EF  082B               	movf	??___fldiv+3,w
  4046  03F0  042A               	iorwf	??___fldiv+2,w
  4047  03F1  0429               	iorwf	??___fldiv+1,w
  4048  03F2  0428               	iorwf	??___fldiv,w
  4049  03F3  1903               	skipnz
  4050  03F4  2BF6               	goto	u1681
  4051  03F5  2BF7               	goto	u1680
  4052  03F6                     u1681:
  4053  03F6  2BFA               	goto	l565
  4054  03F7                     u1680:
  4055  03F7                     l1532:
  4056  03F7  01B9               	clrf	___fldiv@aexp
  4057  03F8  0AB9               	incf	___fldiv@aexp,f
  4058  03F9  2BFF               	goto	l1536
  4059  03FA                     l565:
  4060  03FA  1C24               	btfss	___fldiv@b,0
  4061  03FB  2BFD               	goto	u1691
  4062  03FC  2BFE               	goto	u1690
  4063  03FD                     u1691:
  4064  03FD  2BFF               	goto	l1536
  4065  03FE                     u1690:
  4066  03FE  2BF7               	goto	l1532
  4067  03FF                     l1536:
  4068  03FF  0839               	movf	___fldiv@aexp,w
  4069  0400  1903               	btfsc	3,2
  4070  0401  2C03               	goto	u1701
  4071  0402  2C04               	goto	u1700
  4072  0403                     u1701:
  4073  0403  2C35               	goto	l1546
  4074  0404                     u1700:
  4075  0404                     l1538:
  4076  0404  3001               	movlw	1
  4077  0405  07A4               	addwf	___fldiv@b,f
  4078  0406  3000               	movlw	0
  4079  0407  1803               	skipnc
  4080  0408  3001               	movlw	1
  4081  0409  07A5               	addwf	___fldiv@b+1,f
  4082  040A  3000               	movlw	0
  4083  040B  1803               	skipnc
  4084  040C  3001               	movlw	1
  4085  040D  07A6               	addwf	___fldiv@b+2,f
  4086  040E  3000               	movlw	0
  4087  040F  1803               	skipnc
  4088  0410  3001               	movlw	1
  4089  0411  07A7               	addwf	___fldiv@b+3,f
  4090  0412                     l1540:
  4091  0412  1C27               	btfss	___fldiv@b+3,0
  4092  0413  2C15               	goto	u1711
  4093  0414  2C16               	goto	u1710
  4094  0415                     u1711:
  4095  0415  2C35               	goto	l1546
  4096  0416                     u1710:
  4097  0416                     l1542:
  4098  0416  0824               	movf	___fldiv@b,w
  4099  0417  00A8               	movwf	??___fldiv
  4100  0418  0825               	movf	___fldiv@b+1,w
  4101  0419  00A9               	movwf	??___fldiv+1
  4102  041A  0826               	movf	___fldiv@b+2,w
  4103  041B  00AA               	movwf	??___fldiv+2
  4104  041C  0827               	movf	___fldiv@b+3,w
  4105  041D  00AB               	movwf	??___fldiv+3
  4106  041E  3001               	movlw	1
  4107  041F  00AC               	movwf	??___fldiv+4
  4108  0420                     u1725:
  4109  0420  0D2B               	rlf	??___fldiv+3,w
  4110  0421  0CAB               	rrf	??___fldiv+3,f
  4111  0422  0CAA               	rrf	??___fldiv+2,f
  4112  0423  0CA9               	rrf	??___fldiv+1,f
  4113  0424  0CA8               	rrf	??___fldiv,f
  4114  0425                     u1720:
  4115  0425  0BAC               	decfsz	??___fldiv+4,f
  4116  0426  2C20               	goto	u1725
  4117  0427  082B               	movf	??___fldiv+3,w
  4118  0428  00A7               	movwf	___fldiv@b+3
  4119  0429  082A               	movf	??___fldiv+2,w
  4120  042A  00A6               	movwf	___fldiv@b+2
  4121  042B  0829               	movf	??___fldiv+1,w
  4122  042C  00A5               	movwf	___fldiv@b+1
  4123  042D  0828               	movf	??___fldiv,w
  4124  042E  00A4               	movwf	___fldiv@b
  4125  042F                     l1544:
  4126  042F  3001               	movlw	1
  4127  0430  07B2               	addwf	___fldiv@new_exp,f
  4128  0431  1803               	skipnc
  4129  0432  0AB3               	incf	___fldiv@new_exp+1,f
  4130  0433  3000               	movlw	0
  4131  0434  07B3               	addwf	___fldiv@new_exp+1,f
  4132  0435                     l1546:
  4133  0435  0833               	movf	___fldiv@new_exp+1,w
  4134  0436  3A80               	xorlw	128
  4135  0437  00FF               	movwf	btemp+1
  4136  0438  3080               	movlw	128
  4137  0439  027F               	subwf	btemp+1,w
  4138  043A  1D03               	skipz
  4139  043B  2C3E               	goto	u1735
  4140  043C  30FF               	movlw	255
  4141  043D  0232               	subwf	___fldiv@new_exp,w
  4142  043E                     u1735:
  4143  043E  1C03               	skipc
  4144  043F  2C41               	goto	u1731
  4145  0440  2C42               	goto	u1730
  4146  0441                     u1731:
  4147  0441  2C50               	goto	l1550
  4148  0442                     u1730:
  4149  0442                     l1548:
  4150  0442  30FF               	movlw	255
  4151  0443  1283               	bcf	3,5	;RP0=0, select bank0
  4152  0444  1303               	bcf	3,6	;RP1=0, select bank0
  4153  0445  00B2               	movwf	___fldiv@new_exp
  4154  0446  3000               	movlw	0
  4155  0447  00B3               	movwf	___fldiv@new_exp+1
  4156  0448  3000               	movlw	0
  4157  0449  00A7               	movwf	___fldiv@b+3
  4158  044A  3000               	movlw	0
  4159  044B  00A6               	movwf	___fldiv@b+2
  4160  044C  3000               	movlw	0
  4161  044D  00A5               	movwf	___fldiv@b+1
  4162  044E  3000               	movlw	0
  4163  044F  00A4               	movwf	___fldiv@b
  4164  0450                     l1550:
  4165  0450  1283               	bcf	3,5	;RP0=0, select bank0
  4166  0451  1303               	bcf	3,6	;RP1=0, select bank0
  4167  0452  0833               	movf	___fldiv@new_exp+1,w
  4168  0453  3A80               	xorlw	128
  4169  0454  00FF               	movwf	btemp+1
  4170  0455  3080               	movlw	128
  4171  0456  027F               	subwf	btemp+1,w
  4172  0457  1D03               	skipz
  4173  0458  2C5B               	goto	u1745
  4174  0459  3001               	movlw	1
  4175  045A  0232               	subwf	___fldiv@new_exp,w
  4176  045B                     u1745:
  4177  045B  1803               	skipnc
  4178  045C  2C5E               	goto	u1741
  4179  045D  2C5F               	goto	u1740
  4180  045E                     u1741:
  4181  045E  2C6C               	goto	l571
  4182  045F                     u1740:
  4183  045F                     l1552:
  4184  045F  1283               	bcf	3,5	;RP0=0, select bank0
  4185  0460  1303               	bcf	3,6	;RP1=0, select bank0
  4186  0461  01B2               	clrf	___fldiv@new_exp
  4187  0462  01B3               	clrf	___fldiv@new_exp+1
  4188  0463                     l1554:
  4189  0463  3000               	movlw	0
  4190  0464  00A7               	movwf	___fldiv@b+3
  4191  0465  3000               	movlw	0
  4192  0466  00A6               	movwf	___fldiv@b+2
  4193  0467  3000               	movlw	0
  4194  0468  00A5               	movwf	___fldiv@b+1
  4195  0469  3000               	movlw	0
  4196  046A  00A4               	movwf	___fldiv@b
  4197  046B                     l1556:
  4198  046B  01B1               	clrf	___fldiv@sign
  4199  046C                     l571:
  4200  046C  1283               	bcf	3,5	;RP0=0, select bank0
  4201  046D  1303               	bcf	3,6	;RP1=0, select bank0
  4202  046E  0832               	movf	___fldiv@new_exp,w
  4203  046F  00A8               	movwf	??___fldiv
  4204  0470  0828               	movf	??___fldiv,w
  4205  0471  00B8               	movwf	___fldiv@bexp
  4206  0472                     l1558:
  4207  0472  1C38               	btfss	___fldiv@bexp,0
  4208  0473  2C75               	goto	u1751
  4209  0474  2C76               	goto	u1750
  4210  0475                     u1751:
  4211  0475  2C78               	goto	l1562
  4212  0476                     u1750:
  4213  0476                     l1560:
  4214  0476  17A6               	bsf	___fldiv@b+2,7
  4215  0477  2C7C               	goto	l573
  4216  0478                     l1562:
  4217  0478  307F               	movlw	127
  4218  0479  00A8               	movwf	??___fldiv
  4219  047A  0828               	movf	??___fldiv,w
  4220  047B  05A6               	andwf	___fldiv@b+2,f
  4221  047C                     l573:
  4222  047C  0838               	movf	___fldiv@bexp,w
  4223  047D  00A8               	movwf	??___fldiv
  4224  047E  1003               	clrc
  4225  047F  0C28               	rrf	??___fldiv,w
  4226  0480  00A9               	movwf	??___fldiv+1
  4227  0481  0829               	movf	??___fldiv+1,w
  4228  0482  00A7               	movwf	___fldiv@b+3
  4229  0483  0831               	movf	___fldiv@sign,w
  4230  0484  00A8               	movwf	??___fldiv
  4231  0485  0828               	movf	??___fldiv,w
  4232  0486  04A7               	iorwf	___fldiv@b+3,f
  4233  0487  2B20               	goto	l1470
  4234  0488                     l551:
  4235  0488  0008               	return
  4236  0489                     __end_of___fldiv:
  4237                           
  4238                           	psect	text15
  4239  0E6D                     __ptext15:	
  4240 ;; *************** function _ADC_CH *****************
  4241 ;; Defined at:
  4242 ;;		line 15 in file "./adc.h"
  4243 ;; Parameters:    Size  Location     Type
  4244 ;;  channel         2    0[COMMON] unsigned int 
  4245 ;; Auto vars:     Size  Location     Type
  4246 ;;		None
  4247 ;; Return value:  Size  Location     Type
  4248 ;;                  1    wreg      void 
  4249 ;; Registers used:
  4250 ;;		wreg, fsr0l, fsr0h, status,2, status,0
  4251 ;; Tracked objects:
  4252 ;;		On entry : 0/0
  4253 ;;		On exit  : 0/0
  4254 ;;		Unchanged: 0/0
  4255 ;; Data sizes:     COMMON   BANK0   BANK1   BANK3   BANK2
  4256 ;;      Params:         2       0       0       0       0
  4257 ;;      Locals:         0       0       0       0       0
  4258 ;;      Temps:          0       0       0       0       0
  4259 ;;      Totals:         2       0       0       0       0
  4260 ;;Total ram usage:        2 bytes
  4261 ;; Hardware stack levels used: 1
  4262 ;; This function calls:
  4263 ;;		Nothing
  4264 ;; This function is called by:
  4265 ;;		_volt
  4266 ;;		_temp
  4267 ;; This function uses a non-reentrant model
  4268 ;;
  4269                           
  4270                           
  4271                           ;psect for function _ADC_CH
  4272  0E6D                     _ADC_CH:
  4273  0E6D                     l1360:	
  4274                           ;incstack = 0
  4275                           ; Regs used in _ADC_CH: [wreg-fsr0h+status,2+status,0]
  4276                           
  4277                           
  4278                           ;./adc.h: 15: void ADC_CH(unsigned int channel);./adc.h: 16: {;./adc.h: 17:     switch (
      +                          channel)
  4279  0E6D  2E99               	goto	l1380
  4280  0E6E                     l1362:
  4281                           
  4282                           ;./adc.h: 20:             ADCON0=0XC5;
  4283  0E6E  30C5               	movlw	197
  4284  0E6F  1283               	bcf	3,5	;RP0=0, select bank0
  4285  0E70  1303               	bcf	3,6	;RP1=0, select bank0
  4286  0E71  009F               	movwf	31	;volatile
  4287  0E72                     l75:	
  4288                           ;./adc.h: 21:             while(GO_DONE==1);
  4289                           
  4290  0E72  191F               	btfsc	31,2	;volatile
  4291  0E73  2E75               	goto	u1331
  4292  0E74  2E76               	goto	u1330
  4293  0E75                     u1331:
  4294  0E75  2E72               	goto	l75
  4295  0E76                     u1330:
  4296  0E76                     l1364:
  4297                           
  4298                           ;./adc.h: 22:             adc_value=(ADRESL+(ADRESH*256));
  4299  0E76  081E               	movf	30,w	;volatile
  4300  0E77  00EF               	movwf	_adc_value+1
  4301  0E78  1683               	bsf	3,5	;RP0=1, select bank1
  4302  0E79  1303               	bcf	3,6	;RP1=0, select bank1
  4303  0E7A  081E               	movf	30,w	;volatile
  4304  0E7B  1283               	bcf	3,5	;RP0=0, select bank0
  4305  0E7C  1303               	bcf	3,6	;RP1=0, select bank0
  4306  0E7D  00EE               	movwf	_adc_value
  4307                           
  4308                           ;./adc.h: 23:             break;
  4309  0E7E  2EA9               	goto	l91
  4310  0E7F                     l1366:
  4311                           
  4312                           ;./adc.h: 25:             ADCON0=0XCD;
  4313  0E7F  30CD               	movlw	205
  4314  0E80  1283               	bcf	3,5	;RP0=0, select bank0
  4315  0E81  1303               	bcf	3,6	;RP1=0, select bank0
  4316  0E82  009F               	movwf	31	;volatile
  4317  0E83                     l80:	
  4318                           ;./adc.h: 26:             while(GO_DONE==1);
  4319                           
  4320  0E83  191F               	btfsc	31,2	;volatile
  4321  0E84  2E86               	goto	u1341
  4322  0E85  2E87               	goto	u1340
  4323  0E86                     u1341:
  4324  0E86  2E83               	goto	l80
  4325  0E87                     u1340:
  4326  0E87  2E76               	goto	l1364
  4327  0E88                     l1370:
  4328                           
  4329                           ;./adc.h: 30:             ADCON0=0XD5;
  4330  0E88  30D5               	movlw	213
  4331  0E89  1283               	bcf	3,5	;RP0=0, select bank0
  4332  0E8A  1303               	bcf	3,6	;RP1=0, select bank0
  4333  0E8B  009F               	movwf	31	;volatile
  4334  0E8C                     l84:	
  4335                           ;./adc.h: 31:             while(GO_DONE==1);
  4336                           
  4337  0E8C  191F               	btfsc	31,2	;volatile
  4338  0E8D  2E8F               	goto	u1351
  4339  0E8E  2E90               	goto	u1350
  4340  0E8F                     u1351:
  4341  0E8F  2E8C               	goto	l84
  4342  0E90                     u1350:
  4343  0E90  2E76               	goto	l1364
  4344  0E91                     l1374:
  4345                           
  4346                           ;./adc.h: 35:             ADCON0=0X00;
  4347  0E91  1283               	bcf	3,5	;RP0=0, select bank0
  4348  0E92  1303               	bcf	3,6	;RP1=0, select bank0
  4349  0E93  019F               	clrf	31	;volatile
  4350  0E94                     l88:	
  4351                           ;./adc.h: 36:             while(GO_DONE==1);
  4352                           
  4353  0E94  191F               	btfsc	31,2	;volatile
  4354  0E95  2E97               	goto	u1361
  4355  0E96  2E98               	goto	u1360
  4356  0E97                     u1361:
  4357  0E97  2E94               	goto	l88
  4358  0E98                     u1360:
  4359  0E98  2E76               	goto	l1364
  4360  0E99                     l1380:
  4361                           
  4362                           ; Switch on 2 bytes has been partitioned into a top level switch of size 1, and 1 sub-sw
      +                          itches
  4363                           ; Switch size 1, requested type "simple"
  4364                           ; Number of cases is 1, Range of values is 0 to 0
  4365                           ; switch strategies available:
  4366                           ; Name         Instructions Cycles
  4367                           ; simple_byte            4     3 (average)
  4368                           ; direct_byte           11     8 (fixed)
  4369                           ; jumptable            260     6 (fixed)
  4370                           ;	Chosen strategy is simple_byte
  4371  0E99  0871               	movf	ADC_CH@channel+1,w
  4372  0E9A  3A00               	xorlw	0	; case 0
  4373  0E9B  1903               	skipnz
  4374  0E9C  2E9E               	goto	l1820
  4375  0E9D  2E91               	goto	l1374
  4376  0E9E                     l1820:
  4377                           
  4378                           ; Switch size 1, requested type "simple"
  4379                           ; Number of cases is 3, Range of values is 0 to 2
  4380                           ; switch strategies available:
  4381                           ; Name         Instructions Cycles
  4382                           ; simple_byte           10     6 (average)
  4383                           ; direct_byte           17     8 (fixed)
  4384                           ; jumptable            260     6 (fixed)
  4385                           ;	Chosen strategy is simple_byte
  4386  0E9E  0870               	movf	ADC_CH@channel,w
  4387  0E9F  3A00               	xorlw	0	; case 0
  4388  0EA0  1903               	skipnz
  4389  0EA1  2E6E               	goto	l1362
  4390  0EA2  3A01               	xorlw	1	; case 1
  4391  0EA3  1903               	skipnz
  4392  0EA4  2E7F               	goto	l1366
  4393  0EA5  3A03               	xorlw	3	; case 2
  4394  0EA6  1903               	skipnz
  4395  0EA7  2E88               	goto	l1370
  4396  0EA8  2E91               	goto	l1374
  4397  0EA9                     l91:
  4398  0EA9  0008               	return
  4399  0EAA                     __end_of_ADC_CH:
  4400                           
  4401                           	psect	text16
  4402  0D48                     __ptext16:	
  4403 ;; *************** function _lcd_init *****************
  4404 ;; Defined at:
  4405 ;;		line 10 in file "./lcd.h"
  4406 ;; Parameters:    Size  Location     Type
  4407 ;;		None
  4408 ;; Auto vars:     Size  Location     Type
  4409 ;;		None
  4410 ;; Return value:  Size  Location     Type
  4411 ;;                  1    wreg      void 
  4412 ;; Registers used:
  4413 ;;		wreg, status,2, status,0, pclath, cstack
  4414 ;; Tracked objects:
  4415 ;;		On entry : 0/0
  4416 ;;		On exit  : 0/0
  4417 ;;		Unchanged: 0/0
  4418 ;; Data sizes:     COMMON   BANK0   BANK1   BANK3   BANK2
  4419 ;;      Params:         0       0       0       0       0
  4420 ;;      Locals:         0       0       0       0       0
  4421 ;;      Temps:          0       0       0       0       0
  4422 ;;      Totals:         0       0       0       0       0
  4423 ;;Total ram usage:        0 bytes
  4424 ;; Hardware stack levels used: 1
  4425 ;; Hardware stack levels required when called: 1
  4426 ;; This function calls:
  4427 ;;		_lcd_command
  4428 ;; This function is called by:
  4429 ;;		_main
  4430 ;; This function uses a non-reentrant model
  4431 ;;
  4432                           
  4433                           
  4434                           ;psect for function _lcd_init
  4435  0D48                     _lcd_init:
  4436  0D48                     l1752:	
  4437                           ;incstack = 0
  4438                           ; Regs used in _lcd_init: [wreg+status,2+status,0+pclath+cstack]
  4439                           
  4440                           
  4441                           ;./lcd.h: 12: lcd_command(0x01);
  4442  0D48  3001               	movlw	1
  4443  0D49  120A  158A  2561  120A  158A  	fcall	_lcd_command
  4444                           
  4445                           ;./lcd.h: 13: lcd_command(0x06);
  4446  0D4E  3006               	movlw	6
  4447  0D4F  120A  158A  2561  120A  158A  	fcall	_lcd_command
  4448                           
  4449                           ;./lcd.h: 14: lcd_command(0x0c);
  4450  0D54  300C               	movlw	12
  4451  0D55  120A  158A  2561  120A  158A  	fcall	_lcd_command
  4452                           
  4453                           ;./lcd.h: 15: lcd_command(0x38);
  4454  0D5A  3038               	movlw	56
  4455  0D5B  120A  158A  2561  120A  158A  	fcall	_lcd_command
  4456  0D60                     l33:
  4457  0D60  0008               	return
  4458  0D61                     __end_of_lcd_init:
  4459                           
  4460                           	psect	text17
  4461  0D61                     __ptext17:	
  4462 ;; *************** function _lcd_command *****************
  4463 ;; Defined at:
  4464 ;;		line 17 in file "./lcd.h"
  4465 ;; Parameters:    Size  Location     Type
  4466 ;;  com             1    wreg     unsigned char 
  4467 ;; Auto vars:     Size  Location     Type
  4468 ;;  com             1    2[COMMON] unsigned char 
  4469 ;; Return value:  Size  Location     Type
  4470 ;;                  1    wreg      void 
  4471 ;; Registers used:
  4472 ;;		wreg
  4473 ;; Tracked objects:
  4474 ;;		On entry : 0/0
  4475 ;;		On exit  : 0/0
  4476 ;;		Unchanged: 0/0
  4477 ;; Data sizes:     COMMON   BANK0   BANK1   BANK3   BANK2
  4478 ;;      Params:         0       0       0       0       0
  4479 ;;      Locals:         1       0       0       0       0
  4480 ;;      Temps:          2       0       0       0       0
  4481 ;;      Totals:         3       0       0       0       0
  4482 ;;Total ram usage:        3 bytes
  4483 ;; Hardware stack levels used: 1
  4484 ;; This function calls:
  4485 ;;		Nothing
  4486 ;; This function is called by:
  4487 ;;		_lcd_init
  4488 ;;		_lcd_cursor
  4489 ;;		_lcd_clear
  4490 ;; This function uses a non-reentrant model
  4491 ;;
  4492                           
  4493                           
  4494                           ;psect for function _lcd_command
  4495  0D61                     _lcd_command:
  4496                           
  4497                           ;incstack = 0
  4498                           ; Regs used in _lcd_command: [wreg]
  4499                           ;lcd_command@com stored from wreg
  4500  0D61  00F2               	movwf	lcd_command@com
  4501  0D62                     l1264:
  4502                           
  4503                           ;./lcd.h: 17: void lcd_command(unsigned char com);./lcd.h: 18: {;./lcd.h: 19: PORTD=com;
  4504  0D62  0872               	movf	lcd_command@com,w
  4505  0D63  1283               	bcf	3,5	;RP0=0, select bank0
  4506  0D64  1303               	bcf	3,6	;RP1=0, select bank0
  4507  0D65  0088               	movwf	8	;volatile
  4508  0D66                     l1266:
  4509                           
  4510                           ;./lcd.h: 20: RB4=0;
  4511  0D66  1206               	bcf	6,4	;volatile
  4512  0D67                     l1268:
  4513                           
  4514                           ;./lcd.h: 21: RB5=1;
  4515  0D67  1686               	bsf	6,5	;volatile
  4516                           
  4517                           ;./lcd.h: 22: _delay((unsigned long)((10)*(20000000/4000.0)));
  4518  0D68  3041               	movlw	65
  4519  0D69  00F1               	movwf	??_lcd_command+1
  4520  0D6A  30EE               	movlw	238
  4521  0D6B  00F0               	movwf	??_lcd_command
  4522  0D6C                     u2307:
  4523  0D6C  0BF0               	decfsz	??_lcd_command,f
  4524  0D6D  2D6C               	goto	u2307
  4525  0D6E  0BF1               	decfsz	??_lcd_command+1,f
  4526  0D6F  2D6C               	goto	u2307
  4527  0D70  0000               	nop
  4528  0D71                     l1270:
  4529                           
  4530                           ;./lcd.h: 23: RB5=0;
  4531  0D71  1283               	bcf	3,5	;RP0=0, select bank0
  4532  0D72  1303               	bcf	3,6	;RP1=0, select bank0
  4533  0D73  1286               	bcf	6,5	;volatile
  4534                           
  4535                           ;./lcd.h: 24: _delay((unsigned long)((10)*(20000000/4000.0)));
  4536  0D74  3041               	movlw	65
  4537  0D75  00F1               	movwf	??_lcd_command+1
  4538  0D76  30EE               	movlw	238
  4539  0D77  00F0               	movwf	??_lcd_command
  4540  0D78                     u2317:
  4541  0D78  0BF0               	decfsz	??_lcd_command,f
  4542  0D79  2D78               	goto	u2317
  4543  0D7A  0BF1               	decfsz	??_lcd_command+1,f
  4544  0D7B  2D78               	goto	u2317
  4545  0D7C  0000               	nop
  4546  0D7D                     l36:
  4547  0D7D  0008               	return
  4548  0D7E                     __end_of_lcd_command:
  4549                           
  4550                           	psect	text18
  4551  000D                     __ptext18:	
  4552 ;; *************** function _adc_init *****************
  4553 ;; Defined at:
  4554 ;;		line 10 in file "./adc.h"
  4555 ;; Parameters:    Size  Location     Type
  4556 ;;		None
  4557 ;; Auto vars:     Size  Location     Type
  4558 ;;		None
  4559 ;; Return value:  Size  Location     Type
  4560 ;;                  1    wreg      void 
  4561 ;; Registers used:
  4562 ;;		wreg
  4563 ;; Tracked objects:
  4564 ;;		On entry : 0/0
  4565 ;;		On exit  : 0/0
  4566 ;;		Unchanged: 0/0
  4567 ;; Data sizes:     COMMON   BANK0   BANK1   BANK3   BANK2
  4568 ;;      Params:         0       0       0       0       0
  4569 ;;      Locals:         0       0       0       0       0
  4570 ;;      Temps:          0       0       0       0       0
  4571 ;;      Totals:         0       0       0       0       0
  4572 ;;Total ram usage:        0 bytes
  4573 ;; Hardware stack levels used: 1
  4574 ;; This function calls:
  4575 ;;		Nothing
  4576 ;; This function is called by:
  4577 ;;		_main
  4578 ;; This function uses a non-reentrant model
  4579 ;;
  4580                           
  4581                           
  4582                           ;psect for function _adc_init
  4583  000D                     _adc_init:
  4584  000D                     l1196:	
  4585                           ;incstack = 0
  4586                           ; Regs used in _adc_init: [wreg]
  4587                           
  4588                           
  4589                           ;./adc.h: 12:  ADCON1=0X80;
  4590  000D  3080               	movlw	128
  4591  000E  1683               	bsf	3,5	;RP0=1, select bank1
  4592  000F  1303               	bcf	3,6	;RP1=0, select bank1
  4593  0010  009F               	movwf	31	;volatile
  4594  0011                     l70:
  4595  0011  0008               	return
  4596  0012                     __end_of_adc_init:
  4597  007E                     btemp	set	126	;btemp
  4598  007E                     wtemp0	set	126
  4599                           
  4600                           	psect	config
  4601                           
  4602                           ;Config register CONFIG @ 0x2007
  4603                           ;	Oscillator Selection bits
  4604                           ;	FOSC = HS, HS oscillator
  4605                           ;	Watchdog Timer Enable bit
  4606                           ;	WDTE = OFF, WDT disabled
  4607                           ;	Power-up Timer Enable bit
  4608                           ;	PWRTE = OFF, PWRT disabled
  4609                           ;	Brown-out Reset Enable bit
  4610                           ;	BOREN = ON, BOR enabled
  4611                           ;	Low-Voltage (Single-Supply) In-Circuit Serial Programming Enable bit
  4612                           ;	LVP = OFF, RB3 is digital I/O, HV on MCLR must be used for programming
  4613                           ;	Data EEPROM Memory Code Protection bit
  4614                           ;	CPD = OFF, Data EEPROM code protection off
  4615                           ;	Flash Program Memory Write Enable bits
  4616                           ;	WRT = OFF, Write protection off; all program memory may be written to by EECON control
  4617                           ;	In-Circuit Debugger Mode bit
  4618                           ;	DEBUG = 0x1, unprogrammed default
  4619                           ;	Flash Program Memory Code Protection bit
  4620                           ;	CP = OFF, Code protection off
  4621  2007                     	org	8199
  4622  2007  3F7A               	dw	16250

Data Sizes:
    Strings     27
    Constant    0
    Data        0
    BSS         14
    Persistent  0
    Stack       0

Auto Spaces:
    Space          Size  Autos    Used
    COMMON           14     14      14
    BANK0            80     70      80
    BANK1            80      0       4
    BANK3            96      0       0
    BANK2            96      0       0

Pointer List with Targets:

    lcd_display@word	PTR const unsigned char  size(1) Largest target is 11
		 -> STR_4(CODE[3]), STR_3(CODE[11]), STR_2(CODE[2]), STR_1(CODE[11]), 


Critical Paths under _main in COMMON

    _volt->___xxtofl
    _disp_dig3->___lwdiv
    _temp->___xxtofl
    _lcd_display->_lcd_data
    _lcd_cursor->_lcd_command
    _disp_dig2->___lwdiv
    ___fltol->___xxtofl
    ___flmul->___xxtofl
    ___fldiv->___xxtofl
    _lcd_init->_lcd_command

Critical Paths under _main in BANK0

    _main->_temp
    _main->_volt
    _volt->___fltol
    _temp->___fltol
    ___fltol->___flmul
    ___flmul->___fldiv

Critical Paths under _main in BANK1

    None.

Critical Paths under _main in BANK3

    None.

Critical Paths under _main in BANK2

    None.

Call Graph Tables:

 ---------------------------------------------------------------------------------
 (Depth) Function   	        Calls       Base Space   Used Autos Params    Refs
 ---------------------------------------------------------------------------------
 (0) _main                                                 0     0      0   18697
                           _adc_init
                           _lcd_init
                               _temp
                               _volt
 ---------------------------------------------------------------------------------
 (1) _volt                                                 7     7      0    9338
                                             63 BANK0      7     7      0
                             _ADC_CH
                            ___fldiv
                            ___flmul
                            ___fltol
                           ___xxtofl
                          _disp_dig3
                         _lcd_cursor
                        _lcd_display
 ---------------------------------------------------------------------------------
 (2) _disp_dig3                                            2     0      2    3199
                                              8 COMMON     2     0      2
                            ___lwdiv
                            ___lwmod
                           _lcd_data
 ---------------------------------------------------------------------------------
 (1) _temp                                                 7     7      0    9337
                                             63 BANK0      7     7      0
                             _ADC_CH
                            ___fldiv
                            ___flmul
                            ___fltol
                           ___xxtofl
                          _disp_dig2
                         _lcd_cursor
                        _lcd_display
 ---------------------------------------------------------------------------------
 (2) _lcd_display                                          3     3      0     199
                                              3 COMMON     3     3      0
                           _lcd_data
 ---------------------------------------------------------------------------------
 (2) _lcd_cursor                                           2     1      1     566
                                              3 COMMON     2     1      1
                        _lcd_command
 ---------------------------------------------------------------------------------
 (2) _disp_dig2                                            2     0      2    3199
                                              8 COMMON     2     0      2
                            ___lwdiv
                            ___lwmod
                           _lcd_data
 ---------------------------------------------------------------------------------
 (3) _lcd_data                                             3     3      0      22
                                              0 COMMON     3     3      0
 ---------------------------------------------------------------------------------
 (3) ___lwmod                                              6     2      4    1527
                                              0 COMMON     6     2      4
 ---------------------------------------------------------------------------------
 (3) ___lwdiv                                              8     4      4    1530
                                              0 COMMON     8     4      4
 ---------------------------------------------------------------------------------
 (2) ___xxtofl                                            14    10      4     474
                                              0 COMMON    14    10      4
 ---------------------------------------------------------------------------------
 (2) ___fltol                                             11     7      4     381
                                             52 BANK0     11     7      4
                            ___fldiv (ARG)
                            ___flmul (ARG)
                           ___xxtofl (ARG)
 ---------------------------------------------------------------------------------
 (2) ___flmul                                             26    18      8    2873
                                             26 BANK0     26    18      8
                          __Umul8_16
                            ___fldiv (ARG)
                           ___xxtofl (ARG)
 ---------------------------------------------------------------------------------
 (3) __Umul8_16                                            9     7      2     799
                                              0 COMMON     9     7      2
 ---------------------------------------------------------------------------------
 (2) ___fldiv                                             26    18      8    1425
                                              0 BANK0     26    18      8
                           ___xxtofl (ARG)
 ---------------------------------------------------------------------------------
 (2) _ADC_CH                                               2     0      2     174
                                              0 COMMON     2     0      2
 ---------------------------------------------------------------------------------
 (1) _lcd_init                                             0     0      0      22
                        _lcd_command
 ---------------------------------------------------------------------------------
 (3) _lcd_command                                          3     3      0      22
                                              0 COMMON     3     3      0
 ---------------------------------------------------------------------------------
 (1) _adc_init                                             0     0      0       0
 ---------------------------------------------------------------------------------
 Estimated maximum stack depth 3
 ---------------------------------------------------------------------------------

 Call Graph Graphs:

 _main (ROOT)
   _adc_init
   _lcd_init
     _lcd_command
   _temp
     _ADC_CH
     ___fldiv
       ___xxtofl (ARG)
     ___flmul
       __Umul8_16
       ___fldiv (ARG)
       ___xxtofl (ARG)
     ___fltol
       ___fldiv (ARG)
       ___flmul (ARG)
       ___xxtofl (ARG)
     ___xxtofl
     _disp_dig2
       ___lwdiv
       ___lwmod
       _lcd_data
     _lcd_cursor
       _lcd_command
     _lcd_display
       _lcd_data
   _volt
     _ADC_CH
     ___fldiv
     ___flmul
     ___fltol
     ___xxtofl
     _disp_dig3
       ___lwdiv
       ___lwmod
       _lcd_data
     _lcd_cursor
     _lcd_display

 Address spaces:
Name               Size   Autos  Total    Cost      Usage
BITCOMMON            E      0       0       0        0.0%
EEDATA             100      0       0       0        0.0%
NULL                 0      0       0       0        0.0%
CODE                 0      0       0       0        0.0%
COMMON               E      E       E       1      100.0%
BITSFR0              0      0       0       1        0.0%
SFR0                 0      0       0       1        0.0%
BITSFR1              0      0       0       2        0.0%
SFR1                 0      0       0       2        0.0%
STACK                0      0       0       2        0.0%
ABS                  0      0      62       3        0.0%
BITBANK0            50      0       0       4        0.0%
BITSFR3              0      0       0       4        0.0%
SFR3                 0      0       0       4        0.0%
BANK0               50     46      50       5      100.0%
BITSFR2              0      0       0       5        0.0%
SFR2                 0      0       0       5        0.0%
BITBANK1            50      0       0       6        0.0%
BANK1               50      0       4       7        5.0%
BITBANK3            60      0       0       8        0.0%
BANK3               60      0       0       9        0.0%
BITBANK2            60      0       0      10        0.0%
BANK2               60      0       0      11        0.0%
DATA                 0      0      62      12        0.0%


Microchip Technology PIC Macro Assembler V2.32 build 20210201212658 
Symbol Table                                                                                   Sat May 29 22:32:50 2021

           ___fldiv@aexp 0039             ___fldiv@bexp 0038                        pc 0002  
           lcd_data@data 0072             ___fldiv@sign 0031                       l33 0D60  
                     l36 0D7D                       l53 0DE4                       l45 0E32  
                     l70 0011                       l39 0D9A                       l80 0E83  
                     l91 0EA9                       l75 0E72                       l84 0E8C  
                     l88 0E94                       l97 0FFF                       fsr 0004  
    __Umul8_16@word_mpld 0076                      l100 0096                      l111 0143  
                    l114 01F1                      l601 07DD                      l610 0E0B  
                    l551 0488                      l608 0DF9                      l472 0EED  
                    l393 0F54                      l633 0214                      l386 0F69  
                    l482 0E6C                      l571 046C                      l635 02AB  
                    l396 0F69                      l573 047C                      l565 03FA  
                    l549 0308                      l646 0275                      l647 0281  
                    l639 0259                      l595 0755                      l589 07E9  
                    _RB4 0034                      _RB5 0035                      fsr0 0004  
           ___flmul@aexp 004C             ___flmul@bexp 004D             ___flmul@sign 0047  
           ___flmul@temp 0052             ___flmul@prod 004E             ___fltol@exp1 005E  
                   l1300 0EE3                     l1302 0EE9                     l1310 0E3C  
                   l1400 0F1A                     l1320 0E5B                     l1312 0E43  
                   l1330 0DE8                     l1402 0F22                     l1322 0E62  
                   l1314 0E47                     l1306 0E33                     l1500 0388  
                   l1332 0DEF                     l1420 0F49                     l1412 0F30  
                   l1404 0F24                     l1316 0E4B                     l1308 0E39  
                   l1324 0E68                     l1270 0D71                     l1510 03B3  
                   l1502 039A                     l1430 02B9                     l1334 0DF3  
                   l1422 0F59                     l1406 0F28                     l1414 0F42  
                   l1318 0E55                     l1350 0E26                     l1342 0E0D  
                   l1264 0D62                     l1360 0E6D                     l1520 03CB  
                   l1512 03BB                     l1504 039B                     l1440 02D0  
                   l1432 02BD                     l1336 0E02                     l1328 0DE6  
                   l1600 04D9                     l1424 0F5E                     l1280 0EAA  
                   l1272 0D7F                     l1352 0DC0                     l1344 0E0E  
                   l1266 0D66                     l1370 0E88                     l1362 0E6E  
                   l1530 03E3                     l1522 03D4                     l1514 03BD  
                   l1506 03A9                     l1450 02E6                     l1442 02D1  
                   l1434 02BE                     l1426 02AC                     l1338 0E07  
                   l1602 04DB                     l1290 0EC0                     l1282 0EAC  
                   l1274 0D83                     l1354 0DC5                     l1346 0E1A  
                   l1196 000D                     l1268 0D67                     l1364 0E76  
                   l1380 0E99                     l1540 0412                     l1532 03F7  
                   l1516 03C6                     l1524 03DA                     l1508 03AD  
                   l1460 02FD                     l1452 02EA                     l1436 02C3  
                   l1444 02D3                     l1428 02B3                     l1700 07D5  
                   l1620 054C                     l1612 04F6                     l1604 04E3  
                   l1292 0EC4                     l1284 0EB2                     l1276 0D84  
                   l1356 0DD2                     l1348 0E1E                     l1374 0E91  
                   l1366 0E7F                     l1550 0450                     l1542 0416  
                   l1526 03DE                     l1518 03CA                     l1470 0320  
                   l1462 02FE                     l1454 02EB                     l1446 02DB  
                   l1438 02C8                     l1702 07D6                     l1630 05C9  
                   l1622 0578                     l1614 0506                     l1606 04E8  
                   l1390 0EEE                     l1710 01F8                     l1294 0ED5  
                   l1286 0EB5                     l1278 0D8E                     l1358 0DD7  
                   l1560 0476                     l1552 045F                     l1544 042F  
                   l1536 03FF                     l1528 03DF                     l1480 0337  
                   l1456 02F0                     l1464 0300                     l1448 02E0  
                   l1704 07E1                     l1640 0649                     l1632 05E6  
                   l1624 0594                     l1616 0513                     l1608 04ED  
                   l1392 0EFB                     l1720 0225                     l1712 01FC  
                   l1296 0EDB                     l1288 0EBC                     l1562 0478  
                   l1554 0463                     l1538 0404                     l1546 0435  
                   l1490 0363                     l1482 0349                     l1466 0310  
                   l1474 0329                     l1458 02F5                     l1650 0701  
                   l1642 0676                     l1634 05F6                     l1626 05B0  
                   l1618 0530                     l1570 0490                     l1730 0250  
                   l1722 022A                     l1714 020C                     l1298 0EDC  
                   l1386 0F6A                     l1820 0E9E                     l1556 046B  
                   l1548 0442                     l1492 0368                     l1484 0351  
                   l1476 032E                     l1468 031C                     l1660 0726  
                   l1652 070A                     l1644 0686                     l1636 0613  
                   l1628 05B9                     l1580 04A5                     l1572 0496  
                   l1396 0F04                     l1740 0283                     l1732 0260  
                   l1724 0237                     l1716 021C                     l1708 01F3  
                   l1388 0012                     l1558 0472                     l1494 037A  
                   l1486 0359                     l1670 073E                     l1662 072F  
                   l1654 0718                     l1646 06B3                     l1638 062C  
                   l1590 04C2                     l1582 04AD                     l1574 049A  
                   l1398 0F19                     l1742 0299                     l1734 026B  
                   l1726 023E                     l1752 0D48                     l1496 037E  
                   l1488 0361                     l1680 076D                     l1672 0752  
                   l1656 0721                     l1664 0735                     l1648 06D9  
                   l1592 04C6                     l1584 04AF                     l1576 049B  
                   l1568 0489                     l1744 029E                     l1736 026F  
                   l1728 0242                     l1760 00A6                     l1498 037F  
                   l1690 07A8                     l1682 0771                     l1666 0739  
                   l1658 0725                     l1594 04C7                     l1586 04B7  
                   l1578 04A0                     l1746 02A2                     l1738 0279  
                   l1770 0131                     l1762 00AC                     l1754 0097  
                   l1692 07B7                     l1684 078A                     l1676 075A  
                   l1668 073A                     l1596 04CC                     l1588 04BC  
                   l1748 02A3                     l1780 0166                     l1772 013D  
                   l1764 00B8                     l1756 0097                     l1694 07C1  
                   l1678 075F                     l1686 0790                     l1598 04D1  
                   l1782 01AC                     l1774 0144                     l1766 00FE  
                   l1758 009F                     l1790 0D9B                     l1696 07C3  
                   l1688 079D                     l1784 01EB                     l1776 014D  
                   l1768 0128                     l1792 0DA7                     l1698 07D1  
                   l1778 0154                     l1794 0DAC                     l1796 0DB1  
                   l1798 0DB6                     STR_1 0811                     STR_2 081F  
                   STR_3 0806                     STR_4 081C                     u1200 0EE9  
                   u1201 0EE8                     u2010 0725                     u1210 0E39  
                   u2011 0724                     u1211 0E38                     u2100 079D  
                   u1140 0EB2                     u1300 0E32                     u2101 079C  
                   u2005 071A                     u1141 0EB1                     u1301 0E31  
                   u2110 07B7                     u2030 0739                     u1230 0E4B  
                   u1310 0DC5                     u2111 07B6                     u2031 0738  
                   u1231 0E4A                     u1311 0DC4                     u2120 07D5  
                   u2040 073E                     u1400 0F2F                     u1160 0EC4  
                   u1240 0E55                     u1320 0DD7                     u2121 07D4  
                   u2105 0799                     u2041 073D                     u2025 0728  
                   u1401 0F2E                     u1161 0EC3                     u1241 0E54  
                   u1225 0E3D                     u1321 0DD6                     u1330 0E76  
                   u2050 0752                     u2210 026F                     u2130 01F8  
                   u1331 0E75                     u2115 07B3                     u2051 0751  
                   u2211 026E                     u2131 01F7                     u1155 0EB6  
                   u1340 0E87                     u1500 02EA                     u2060 0759  
                   u1420 0F41                     u2220 0275                     u2140 01FC  
                   u1180 0ED5                     u1260 0E68                     u1341 0E86  
                   u1501 02E9                     u2061 0758                     u1421 0F40  
                   u2221 0274                     u2205 0264                     u2141 01FB  
                   u1181 0ED4                     u1261 0E67                     u1245 0E51  
                   u1350 0E90                     u1510 02F0                     u1270 0DF3  
                   u2070 075F                     u1430 0F48                     u2230 0279  
                   u2150 021C                     u1351 0E8F                     u1511 02EF  
                   u1271 0DF2                     u2071 075E                     u1431 0F47  
                   u1415 0F31                     u2231 0278                     u2151 021B  
                   u1175 0EC5                     u1255 0E5C                     u1360 0E98  
                   u1600 039A                     u1520 02F5                     u2080 0771  
                   u2240 028E                     u1361 0E97                     u1601 0399  
                   u1521 02F4                     u2081 0770                     u1185 0ED1  
                   u1610 03B3                     u1530 0310                     u1290 0E07  
                   u2090 0780                     u1450 0F59                     u1370 0EFB  
                   u2250 029E                     u2170 023D                     u2307 0D6C  
                   u1611 03B2                     u1531 030F                     u1291 0E06  
                   u1451 0F58                     u1371 0EFA                     u2251 029D  
                   u2171 023C                     u1195 0EDD                     u1700 0404  
                   u1620 03BB                     u1540 032E                     u1460 0F5E  
                   u1380 0F12                     u2260 02A2                     u2317 0D78  
                   u1701 0403                     u1621 03BA                     u1605 0396  
                   u1541 032D                     u1285 0DFA                     u1461 0F5D  
                   u1445 0F4B                     u2261 02A1                     u2245 0289  
                   u2165 022F                     u1710 0416                     u1550 0368  
                   u1470 02BD                     u1390 0F28                     u2190 025F  
                   u1711 0415                     u1551 0367                     u1471 02BC  
                   u2095 077B                     u1391 0F27                     u2191 025E  
                   u1720 0425                     u1640 03CA                     u1480 02C3  
                   u1800 04CC                     u1641 03C9                     u1481 02C2  
                   u1801 04CB                     u1385 0F0D                     u2185 0251  
                   u1730 0442                     u1490 02C8                     u1810 04D1  
                   u1731 0441                     u1635 03BF                     u1491 02C7  
                   u1811 04D0                     u1740 045F                     u1660 03DE  
                   u1580 037E                     u1820 04E8                     u1741 045E  
                   u1725 0420                     u1661 03DD                     u1581 037D  
                   u1565 036A                     u1901 0605                     u1821 04E7  
                   u2277 0E22                     u1750 0476                     u1670 03E3  
                   u1902 060C                     u1830 04ED                     u1751 0475  
                   u1735 043E                     u1671 03E2                     u1655 03CD  
                   u1575 0373                     u1903 0613                     u1831 04EC  
                   u2287 0D89                     u1680 03F7                     u1760 049A  
                   u1745 045B                     u1681 03F6                     u1921 063B  
                   u1841 053E                     u1761 0499                     u2297 0D95  
                   u1690 03FE                     u1922 0642                     u1842 0545  
                   u1770 04A0                     u1691 03FD                     u1595 0381  
                   u1931 0668                     u1923 0649                     u1915 0615  
                   u1851 055A                     u1843 054C                     u1771 049F  
                   u1932 066F                     u1852 0561                     u1780 04A5  
                   u1941 0695                     u1933 0676                     u1861 0586  
                   u1853 0568                     u1781 04A4                     u1950 06BF  
                   u1942 069C                     u1862 058D                     u1790 04C6  
                   u1943 06A3                     u1871 05A2                     u1863 0594  
                   u1791 04C5                     u1872 05A9                     u1961 06CB  
                   u1873 05B0                     u1970 06E7                     u1962 06D2  
                   u1963 06D9                     u1955 06BA                     u1891 05D8  
                   u1892 05DF                     u1981 06F3                     u1893 05E6  
                   u1885 05B2                     u1982 06FA                     u1983 0701  
                   u1975 06E2                     u1995 0703                     _main 0D9B  
                   _val2 00A2                     _val3 006C                     _val4 00A0  
                   _val5 006A                     _val6 0068                     _val7 0066  
                   _temp 0144                     btemp 007E                     _volt 0097  
                   start 0000          ___fldiv@new_exp 0032            disp_dig2@val1 0078  
          disp_dig3@val1 0078            ___fltol@sign1 005D                    ?_main 0070  
        __end_of___fldiv 0489                    ?_temp 0070          __end_of___flmul 07EA  
        __end_of___fltol 0F6A                    ?_volt 0070          __end_of___lwdiv 0EEE  
        __end_of___lwmod 0E6D                    _PORTB 0006                    _PORTD 0008  
                  _TRISB 0086                    _TRISD 0088                    pclath 000A  
                  status 0003                    wtemp0 007E            lcd_cursor@col 0073  
          lcd_cursor@row 0074          __initialization 07EA             __end_of_main 0DBF  
           __end_of_temp 01F2             __end_of_volt 0144                   ??_main 007E  
                 ??_temp 005F                   ??_volt 005F           lcd_command@com 0072  
                 _ADCON0 001F                   _ADCON1 009F                   _ADC_CH 0E6D  
                 _ADRESH 001E                   _ADRESL 009E         __end_of_adc_init 0012  
       __end_of___xxtofl 02AC         __end_of_lcd_data 0D9B         __end_of_lcd_init 0D61  
   __size_of_lcd_command 001D     __size_of_lcd_display 0027                ??___fldiv 0028  
              ??___flmul 0042                ??___fltol 0058                ??___lwdiv 0074  
              ??___lwmod 0074       __size_of__Umul8_16 0027             ___xxtofl@arg 007A  
           ___xxtofl@exp 0079             ___xxtofl@val 0070  __end_of__initialization 07FC  
             ___fltol@f1 0054           __pcstackCOMMON 0070       __size_of_disp_dig2 0085  
     __size_of_disp_dig3 0096                  ?_ADC_CH 0070               __pbssBANK0 0066  
             __pbssBANK1 00A0        __end_of__Umul8_16 0E0C               __pmaintext 0D9B  
        lcd_display@word 0075                ?_adc_init 0070                ?___xxtofl 0070  
                _GO_DONE 00FA               _lcd_cursor 0DBF                ?_lcd_data 0070  
              ?_lcd_init 0070          __size_of_ADC_CH 003D               __stringtab 0800  
      __end_of_disp_dig2 0097        __end_of_disp_dig3 1000                  ___fldiv 02AC  
                ___flmul 0489                  ___fltol 0EEE                  ___lwdiv 0EAA  
                ___lwmod 0E33               ??_adc_init 0070                  __ptext1 0097  
                __ptext2 0F6A                  __ptext3 0144                  __ptext4 0E0C  
                __ptext5 0DBF                  __ptext6 0012                  __ptext7 0D7E  
                __ptext8 0E33                  __ptext9 0EAA               ??___xxtofl 0074  
             ??_lcd_data 0070          temp@temperature 0064               ??_lcd_init 0073  
   end_of_initialization 07FC            ___xxtofl@sign 0078              ?_lcd_cursor 0073  
            ___fldiv@grs 0034              ___fldiv@rem 002D            ADC_CH@channel 0070  
         __end_of_ADC_CH 0EAA              ___flmul@grs 0048            ??_lcd_command 0070  
          ??_lcd_display 0073      start_initialization 07EA                 ??_ADC_CH 0072  
    __size_of_lcd_cursor 0026      __end_of_lcd_command 0D7E      __end_of_lcd_display 0E33  
              __Umul8_16 0DE5                ___fldiv@a 0020                ___fldiv@b 0024  
      __size_of_adc_init 0005                ___flmul@a 003E                ___flmul@b 003A  
              ___latbits 0002            __pcstackBANK0 0020        __size_of___xxtofl 00BA  
              _adc_value 006E        __size_of_lcd_data 001D        __size_of_lcd_init 0019  
            volt@voltage 0064         ___lwdiv@dividend 0072                 ?___fldiv 0020  
               ?___flmul 003A                 ?___fltol 0054               ?__Umul8_16 0070  
               ?___lwdiv 0070                 ?___lwmod 0070                _disp_dig2 0012  
              _disp_dig3 0F6A                __pstrings 0800         ___lwdiv@quotient 0075  
            _lcd_command 0D61              _lcd_display 0E0C               ?_disp_dig2 0078  
             ?_disp_dig3 0078              __stringbase 0805             ??_lcd_cursor 0074  
     __end_of_lcd_cursor 0DE5              ??__Umul8_16 0072         __size_of___fldiv 01DD  
       __size_of___flmul 0361         __size_of___fltol 007C         __size_of___lwdiv 0044  
       __size_of___lwmod 003A       __end_of__stringtab 0806                 _adc_init 000D  
               ___xxtofl 01F2          ___lwdiv@divisor 0070          ___lwdiv@counter 0077  
               __ptext10 01F2                 __ptext11 0EEE                 __ptext12 0489  
               __ptext13 0DE5                 __ptext14 02AC                 __ptext15 0E6D  
               __ptext16 0D48                 __ptext17 0D61                 __ptext18 000D  
               _lcd_data 0D7E                 _lcd_init 0D48            __size_of_main 0024  
               _temp$723 0060            __size_of_temp 00AE            __size_of_volt 00AD  
               _volt$722 0060              ??_disp_dig2 007A              ??_disp_dig3 007A  
       ___lwmod@dividend 0072                stringcode 0800   __Umul8_16@multiplicand 0070  
        ___lwmod@divisor 0070          ___lwmod@counter 0075                 stringdir 0800  
               stringtab 0800     __Umul8_16@multiplier 0078             ?_lcd_command 0070  
           ?_lcd_display 0070        __Umul8_16@product 0074  
